---
triple:          'arm64-apple-darwin'
binary-path:     QPEngine
relocations:
  - { offsetInCU: 0x12A85, offset: 0x12A85, size: 0x8, addend: 0x0, symName: __ZNSt3__124__put_character_sequenceB7v160006IcNS_11char_traitsIcEEEERNS_13basic_ostreamIT_T0_EES7_PKS4_m, symObjAddr: 0x3DA0, symBinAddr: 0x100005C30, symSize: 0x1EC }
  - { offsetInCU: 0x14B13, offset: 0x14B13, size: 0x8, addend: 0x0, symName: __ZNSt3__1lsB7v160006INS_11char_traitsIcEEEERNS_13basic_ostreamIcT_EES6_PKc, symObjAddr: 0x2E8, symBinAddr: 0x100002178, symSize: 0x48 }
  - { offsetInCU: 0x14B59, offset: 0x14B59, size: 0x8, addend: 0x0, symName: __ZNSt3__14endlB7v160006IcNS_11char_traitsIcEEEERNS_13basic_ostreamIT_T0_EES7_, symObjAddr: 0x35C, symBinAddr: 0x1000021EC, symSize: 0x58 }
  - { offsetInCU: 0x14B99, offset: 0x14B99, size: 0x8, addend: 0x0, symName: __ZNSt3__17getlineB7v160006IcNS_11char_traitsIcEENS_9allocatorIcEEEERNS_13basic_istreamIT_T0_EES9_RNS_12basic_stringIS6_S7_T1_EE, symObjAddr: 0x1850, symBinAddr: 0x1000036E0, symSize: 0x5C }
  - { offsetInCU: 0x14F34, offset: 0x14F34, size: 0x8, addend: 0x0, symName: '__ZNSt3__18for_eachB7v160006INS_11__wrap_iterIPNS_4pairINS_6vectorImNS_9allocatorImEEEES6_EEEEZN8QPEngine12_readNetlistERNS_14basic_ifstreamIcNS_11char_traitsIcEEEEE3$_0EET0_T_SI_SH_', symObjAddr: 0x1AC8, symBinAddr: 0x100003958, symSize: 0x6C }
  - { offsetInCU: 0x14F8E, offset: 0x14F8E, size: 0x8, addend: 0x0, symName: __ZNSt3__19make_pairB7v160006IRmS1_EENS_4pairINS_18__unwrap_ref_decayIT_E4typeENS3_IT0_E4typeEEEOS4_OS7_, symObjAddr: 0x1CCC, symBinAddr: 0x100003B5C, symSize: 0x38 }
  - { offsetInCU: 0x150BC, offset: 0x150BC, size: 0x8, addend: 0x0, symName: '__ZNSt3__18for_eachB7v160006INS_11__wrap_iterIPKNS_4pairINS_6vectorImNS_9allocatorImEEEES6_EEEEZNK8QPEngine14_createCMatrixERKNS3_IS7_NS4_IS7_EEEEE3$_1EET0_T_SI_SH_', symObjAddr: 0x1ED0, symBinAddr: 0x100003D60, symSize: 0x6C }
  - { offsetInCU: 0x15116, offset: 0x15116, size: 0x8, addend: 0x0, symName: '__ZNSt3__18for_eachB7v160006INS_11__wrap_iterIPKNS_4pairINS_6vectorImNS_9allocatorImEEEES6_EEEEZNK8QPEngine14_createAMatrixERKNS3_INS3_IfNS4_IfEEEENS4_ISD_EEEERKNS3_IS7_NS4_IS7_EEEEE3$_2EET0_T_SO_SN_', symObjAddr: 0x2018, symBinAddr: 0x100003EA8, symSize: 0x74 }
  - { offsetInCU: 0x15170, offset: 0x15170, size: 0x8, addend: 0x0, symName: '__ZNSt3__18for_eachB7v160006INS_11__wrap_iterIPKfEEZNK8QPEngine14_createAMatrixERKNS_6vectorINS6_IfNS_9allocatorIfEEEENS7_IS9_EEEERKNS6_INS_4pairINS6_ImNS7_ImEEEESG_EENS7_ISH_EEEEE3$_3EET0_T_SO_SN_', symObjAddr: 0x208C, symBinAddr: 0x100003F1C, symSize: 0x84 }
  - { offsetInCU: 0x151CB, offset: 0x151CB, size: 0x8, addend: 0x0, symName: '__ZNSt3__18for_eachB7v160006INS_11__wrap_iterIPKNS_4pairINS_6vectorImNS_9allocatorImEEEES6_EEEEZNK8QPEngine14_createBVectorERKNS3_IS7_NS4_IS7_EEEERKNS3_INS2_IffEENS4_ISG_EEEEE3$_4EET0_T_SN_SM_', symObjAddr: 0x2284, symBinAddr: 0x100004114, symSize: 0x80 }
  - { offsetInCU: 0x15226, offset: 0x15226, size: 0x8, addend: 0x0, symName: __ZNSt3__119__debug_db_insert_cB7v160006INS_6vectorINS_4pairIffEENS_9allocatorIS3_EEEEEEvPT_, symObjAddr: 0x23FC, symBinAddr: 0x10000428C, symSize: 0x10 }
  - { offsetInCU: 0x15257, offset: 0x15257, size: 0x8, addend: 0x0, symName: __ZNSt3__119__debug_db_insert_cB7v160006INS_6vectorImNS_9allocatorImEEEEEEvPT_, symObjAddr: 0x27D8, symBinAddr: 0x100004668, symSize: 0x10 }
  - { offsetInCU: 0x15288, offset: 0x15288, size: 0x8, addend: 0x0, symName: __ZNSt3__115__debug_db_swapB7v160006INS_6vectorImNS_9allocatorImEEEEEEvPT_S6_, symObjAddr: 0x27E8, symBinAddr: 0x100004678, symSize: 0x14 }
  - { offsetInCU: 0x152C7, offset: 0x152C7, size: 0x8, addend: 0x0, symName: __ZNSt3__18for_eachB7v160006INS_11__wrap_iterIPKNS_4pairIffEEEEZNK8QPEngine20_printCoordinateListERKNS_6vectorIS3_NS_9allocatorIS3_EEEEEUlRKT_E_EET0_SE_SE_SI_, symObjAddr: 0x2C14, symBinAddr: 0x100004AA4, symSize: 0x5C }
  - { offsetInCU: 0x15321, offset: 0x15321, size: 0x8, addend: 0x0, symName: __ZNSt3__1neB7v160006IPKNS_4pairIffEEEEbRKNS_11__wrap_iterIT_EES9_, symObjAddr: 0x2CD0, symBinAddr: 0x100004B60, symSize: 0x34 }
  - { offsetInCU: 0x15364, offset: 0x15364, size: 0x8, addend: 0x0, symName: __ZNSt3__1eqB7v160006IPKNS_4pairIffEEEEbRKNS_11__wrap_iterIT_EES9_, symObjAddr: 0x2DA0, symBinAddr: 0x100004C30, symSize: 0x48 }
  - { offsetInCU: 0x153A7, offset: 0x153A7, size: 0x8, addend: 0x0, symName: __ZNSt3__18for_eachB7v160006INS_11__wrap_iterIPKNS_6vectorIfNS_9allocatorIfEEEEEEZNK8QPEngine12_printMatrixERKNS2_IS5_NS3_IS5_EEEEEUlRKT_E_EET0_SE_SE_SI_, symObjAddr: 0x2E94, symBinAddr: 0x100004D24, symSize: 0x5C }
  - { offsetInCU: 0x15401, offset: 0x15401, size: 0x8, addend: 0x0, symName: __ZNSt3__1neB7v160006IPKNS_6vectorIfNS_9allocatorIfEEEEEEbRKNS_11__wrap_iterIT_EESB_, symObjAddr: 0x2F50, symBinAddr: 0x100004DE0, symSize: 0x34 }
  - { offsetInCU: 0x15444, offset: 0x15444, size: 0x8, addend: 0x0, symName: __ZNSt3__1eqB7v160006IPKNS_6vectorIfNS_9allocatorIfEEEEEEbRKNS_11__wrap_iterIT_EESB_, symObjAddr: 0x3028, symBinAddr: 0x100004EB8, symSize: 0x48 }
  - { offsetInCU: 0x15487, offset: 0x15487, size: 0x8, addend: 0x0, symName: __ZNSt3__18for_eachB7v160006INS_11__wrap_iterIPKfEEZZNK8QPEngine12_printMatrixERKNS_6vectorINS6_IfNS_9allocatorIfEEEENS7_IS9_EEEEENKUlRKT_E_clIS9_EEDaSG_EUlSE_E_EET0_SE_SE_SL_, symObjAddr: 0x3088, symBinAddr: 0x100004F18, symSize: 0x5C }
  - { offsetInCU: 0x154E1, offset: 0x154E1, size: 0x8, addend: 0x0, symName: __ZNSt3__1neB7v160006IPKfEEbRKNS_11__wrap_iterIT_EES7_, symObjAddr: 0x30E4, symBinAddr: 0x100004F74, symSize: 0x34 }
  - { offsetInCU: 0x15524, offset: 0x15524, size: 0x8, addend: 0x0, symName: __ZNSt3__1eqB7v160006IPKfEEbRKNS_11__wrap_iterIT_EES7_, symObjAddr: 0x318C, symBinAddr: 0x10000501C, symSize: 0x48 }
  - { offsetInCU: 0x15567, offset: 0x15567, size: 0x8, addend: 0x0, symName: __ZNSt3__13getB7v160006ILm0ENS_6vectorImNS_9allocatorImEEEES4_EERKNS_13tuple_elementIXT_ENS_4pairIT0_T1_EEE4typeERKS9_, symObjAddr: 0x3280, symBinAddr: 0x100005110, symSize: 0x24 }
  - { offsetInCU: 0x155B1, offset: 0x155B1, size: 0x8, addend: 0x0, symName: __ZNSt3__13getB7v160006ILm1ENS_6vectorImNS_9allocatorImEEEES4_EERKNS_13tuple_elementIXT_ENS_4pairIT0_T1_EEE4typeERKS9_, symObjAddr: 0x32A4, symBinAddr: 0x100005134, symSize: 0x24 }
  - { offsetInCU: 0x155FB, offset: 0x155FB, size: 0x8, addend: 0x0, symName: __ZNSt3__18for_eachB7v160006INS_11__wrap_iterIPKmEEZNK8QPEngine13_printNetListERKNS_6vectorINS_4pairINS6_ImNS_9allocatorImEEEESA_EENS8_ISB_EEEEEUlT_E_EET0_SG_SG_SI_, symObjAddr: 0x32C8, symBinAddr: 0x100005158, symSize: 0x5C }
  - { offsetInCU: 0x15655, offset: 0x15655, size: 0x8, addend: 0x0, symName: __ZNSt3__18for_eachB7v160006INS_11__wrap_iterIPKmEEZNK8QPEngine13_printNetListERKNS_6vectorINS_4pairINS6_ImNS_9allocatorImEEEESA_EENS8_ISB_EEEEEUlT_E0_EET0_SG_SG_SI_, symObjAddr: 0x3384, symBinAddr: 0x100005214, symSize: 0x5C }
  - { offsetInCU: 0x15779, offset: 0x15779, size: 0x8, addend: 0x0, symName: __ZNSt3__1neB7v160006IPKmEEbRKNS_11__wrap_iterIT_EES7_, symObjAddr: 0x340C, symBinAddr: 0x10000529C, symSize: 0x34 }
  - { offsetInCU: 0x157BC, offset: 0x157BC, size: 0x8, addend: 0x0, symName: __ZNSt3__1eqB7v160006IPKmEEbRKNS_11__wrap_iterIT_EES7_, symObjAddr: 0x34B4, symBinAddr: 0x100005344, symSize: 0x48 }
  - { offsetInCU: 0x157FF, offset: 0x157FF, size: 0x8, addend: 0x0, symName: __ZNSt3__119__debug_db_insert_cB7v160006INS_12basic_stringIcNS_11char_traitsIcEENS_9allocatorIcEEEEEEvPT_, symObjAddr: 0x3674, symBinAddr: 0x100005504, symSize: 0x10 }
  - { offsetInCU: 0x15830, offset: 0x15830, size: 0x8, addend: 0x0, symName: __ZNSt3__118__debug_db_erase_cB7v160006INS_6vectorINS_4pairIffEENS_9allocatorIS3_EEEEEEvPT_, symObjAddr: 0x39A4, symBinAddr: 0x100005834, symSize: 0x10 }
  - { offsetInCU: 0x15861, offset: 0x15861, size: 0x8, addend: 0x0, symName: __ZNSt3__112__to_addressB7v160006INS_4pairIffEEEEPT_S4_, symObjAddr: 0x3AC0, symBinAddr: 0x100005950, symSize: 0x14 }
  - { offsetInCU: 0x15896, offset: 0x15896, size: 0x8, addend: 0x0, symName: __ZNSt3__119__libcpp_deallocateB7v160006EPvmm, symObjAddr: 0x3BE0, symBinAddr: 0x100005A70, symSize: 0x60 }
  - { offsetInCU: 0x158FB, offset: 0x158FB, size: 0x8, addend: 0x0, symName: __ZNSt3__124__is_overaligned_for_newB7v160006Em, symObjAddr: 0x3C40, symBinAddr: 0x100005AD0, symSize: 0x20 }
  - { offsetInCU: 0x15929, offset: 0x15929, size: 0x8, addend: 0x0, symName: __ZNSt3__127__do_deallocate_handle_sizeB7v160006IJSt11align_val_tEEEvPvmDpT_, symObjAddr: 0x3C60, symBinAddr: 0x100005AF0, symSize: 0x30 }
  - { offsetInCU: 0x1597C, offset: 0x1597C, size: 0x8, addend: 0x0, symName: __ZNSt3__127__do_deallocate_handle_sizeB7v160006IJEEEvPvmDpT_, symObjAddr: 0x3C90, symBinAddr: 0x100005B20, symSize: 0x28 }
  - { offsetInCU: 0x159BA, offset: 0x159BA, size: 0x8, addend: 0x0, symName: __ZNSt3__124__libcpp_operator_deleteB7v160006IJPvSt11align_val_tEEEvDpT_, symObjAddr: 0x3CB8, symBinAddr: 0x100005B48, symSize: 0x2C }
  - { offsetInCU: 0x15A03, offset: 0x15A03, size: 0x8, addend: 0x0, symName: __ZNSt3__124__libcpp_operator_deleteB7v160006IJPvEEEvDpT_, symObjAddr: 0x3CE4, symBinAddr: 0x100005B74, symSize: 0x24 }
  - { offsetInCU: 0x15A38, offset: 0x15A38, size: 0x8, addend: 0x0, symName: __ZNSt3__116__pad_and_outputB7v160006IcNS_11char_traitsIcEEEENS_19ostreambuf_iteratorIT_T0_EES6_PKS4_S8_S8_RNS_8ios_baseES4_, symObjAddr: 0x3FDC, symBinAddr: 0x100005E6C, symSize: 0x240 }
  - { offsetInCU: 0x15B07, offset: 0x15B07, size: 0x8, addend: 0x0, symName: __ZNSt3__112__to_addressB7v160006IcEEPT_S2_, symObjAddr: 0x4454, symBinAddr: 0x1000062E4, symSize: 0x14 }
  - { offsetInCU: 0x15B6F, offset: 0x15B6F, size: 0x8, addend: 0x0, symName: __ZNSt3__19use_facetB7v160006INS_5ctypeIcEEEERKT_RKNS_6localeE, symObjAddr: 0x46D4, symBinAddr: 0x100006564, symSize: 0x2C }
  - { offsetInCU: 0x1603E, offset: 0x1603E, size: 0x8, addend: 0x0, symName: __ZNSt3__118__constexpr_strlenB7v160006EPKc, symObjAddr: 0x476C, symBinAddr: 0x1000065FC, symSize: 0x24 }
  - { offsetInCU: 0x1606A, offset: 0x1606A, size: 0x8, addend: 0x0, symName: __ZNSt3__118__debug_db_erase_cB7v160006INS_6vectorINS_4pairINS1_ImNS_9allocatorImEEEES5_EENS3_IS6_EEEEEEvPT_, symObjAddr: 0x4B2C, symBinAddr: 0x1000069BC, symSize: 0x10 }
  - { offsetInCU: 0x1609B, offset: 0x1609B, size: 0x8, addend: 0x0, symName: __ZNSt3__112__to_addressB7v160006INS_4pairINS_6vectorImNS_9allocatorImEEEES5_EEEEPT_S8_, symObjAddr: 0x4C48, symBinAddr: 0x100006AD8, symSize: 0x14 }
  - { offsetInCU: 0x160D0, offset: 0x160D0, size: 0x8, addend: 0x0, symName: __ZNSt3__118__debug_db_erase_cB7v160006INS_6vectorINS1_IfNS_9allocatorIfEEEENS2_IS4_EEEEEEvPT_, symObjAddr: 0x5020, symBinAddr: 0x100006EB0, symSize: 0x10 }
  - { offsetInCU: 0x16101, offset: 0x16101, size: 0x8, addend: 0x0, symName: __ZNSt3__112__to_addressB7v160006INS_6vectorIfNS_9allocatorIfEEEEEEPT_S6_, symObjAddr: 0x513C, symBinAddr: 0x100006FCC, symSize: 0x14 }
  - { offsetInCU: 0x16136, offset: 0x16136, size: 0x8, addend: 0x0, symName: __ZNSt3__122__make_exception_guardB7v160006INS_6vectorImNS_9allocatorImEEE16__destroy_vectorEEENS_28__exception_guard_exceptionsIT_EES7_, symObjAddr: 0x542C, symBinAddr: 0x1000072BC, symSize: 0x40 }
  - { offsetInCU: 0x1616B, offset: 0x1616B, size: 0x8, addend: 0x0, symName: __ZNSt3__119__allocate_at_leastB7v160006INS_9allocatorImEEEENS_19__allocation_resultINS_16allocator_traitsIT_E7pointerEEERS5_m, symObjAddr: 0x5804, symBinAddr: 0x100007694, symSize: 0x40 }
  - { offsetInCU: 0x161AE, offset: 0x161AE, size: 0x8, addend: 0x0, symName: __ZNSt3__13minB7v160006ImEERKT_S3_S3_, symObjAddr: 0x58F0, symBinAddr: 0x100007780, symSize: 0x2C }
  - { offsetInCU: 0x163DB, offset: 0x163DB, size: 0x8, addend: 0x0, symName: __ZNSt3__13minB7v160006ImNS_6__lessImmEEEERKT_S5_S5_T0_, symObjAddr: 0x597C, symBinAddr: 0x10000780C, symSize: 0x54 }
  - { offsetInCU: 0x16470, offset: 0x16470, size: 0x8, addend: 0x0, symName: __ZNSt3__120__throw_length_errorB7v160006EPKc, symObjAddr: 0x5A58, symBinAddr: 0x1000078E8, symSize: 0x64 }
  - { offsetInCU: 0x16498, offset: 0x16498, size: 0x8, addend: 0x0, symName: __ZNSt3__117__libcpp_allocateB7v160006Emm, symObjAddr: 0x5BC8, symBinAddr: 0x100007A58, symSize: 0x60 }
  - { offsetInCU: 0x164F2, offset: 0x164F2, size: 0x8, addend: 0x0, symName: __ZNSt3__121__libcpp_operator_newB7v160006IJmSt11align_val_tEEEPvDpT_, symObjAddr: 0x5C28, symBinAddr: 0x100007AB8, symSize: 0x2C }
  - { offsetInCU: 0x1653F, offset: 0x1653F, size: 0x8, addend: 0x0, symName: __ZNSt3__121__libcpp_operator_newB7v160006IJmEEEPvDpT_, symObjAddr: 0x5C54, symBinAddr: 0x100007AE4, symSize: 0x24 }
  - { offsetInCU: 0x16578, offset: 0x16578, size: 0x8, addend: 0x0, symName: __ZNSt3__112__to_addressB7v160006ImEEPT_S2_, symObjAddr: 0x5D00, symBinAddr: 0x100007B90, symSize: 0x14 }
  - { offsetInCU: 0x165AD, offset: 0x165AD, size: 0x8, addend: 0x0, symName: __ZNSt3__118__debug_db_erase_cB7v160006INS_6vectorImNS_9allocatorImEEEEEEvPT_, symObjAddr: 0x6040, symBinAddr: 0x100007ED0, symSize: 0x10 }
  - { offsetInCU: 0x165DE, offset: 0x165DE, size: 0x8, addend: 0x0, symName: __ZNSt3__122__make_exception_guardB7v160006INS_6vectorINS_4pairINS1_ImNS_9allocatorImEEEES5_EENS3_IS6_EEE16__destroy_vectorEEENS_28__exception_guard_exceptionsIT_EESB_, symObjAddr: 0x6374, symBinAddr: 0x100008204, symSize: 0x40 }
  - { offsetInCU: 0x16613, offset: 0x16613, size: 0x8, addend: 0x0, symName: __ZNSt3__119__debug_db_insert_cB7v160006INS_6vectorINS_4pairINS1_ImNS_9allocatorImEEEES5_EENS3_IS6_EEEEEEvPT_, symObjAddr: 0x63B4, symBinAddr: 0x100008244, symSize: 0x10 }
  - { offsetInCU: 0x16644, offset: 0x16644, size: 0x8, addend: 0x0, symName: __ZNSt3__119__allocate_at_leastB7v160006INS_9allocatorINS_4pairINS_6vectorImNS1_ImEEEES5_EEEEEENS_19__allocation_resultINS_16allocator_traitsIT_E7pointerEEERSA_m, symObjAddr: 0x672C, symBinAddr: 0x1000085BC, symSize: 0x40 }
  - { offsetInCU: 0x16687, offset: 0x16687, size: 0x8, addend: 0x0, symName: __ZNSt3__130__uninitialized_allocator_copyB7v160006INS_9allocatorImEEPmS3_S3_EET2_RT_T0_T1_S4_, symObjAddr: 0x6D28, symBinAddr: 0x100008BB8, symSize: 0xF4 }
  - { offsetInCU: 0x16725, offset: 0x16725, size: 0x8, addend: 0x0, symName: __ZNSt3__122__make_exception_guardB7v160006INS_29_AllocatorDestroyRangeReverseINS_9allocatorImEEPmEEEENS_28__exception_guard_exceptionsIT_EES7_, symObjAddr: 0x6E1C, symBinAddr: 0x100008CAC, symSize: 0x4C }
  - { offsetInCU: 0x1675B, offset: 0x1675B, size: 0x8, addend: 0x0, symName: __ZNSt3__119__allocator_destroyB7v160006INS_9allocatorImEENS_16reverse_iteratorIPmEES5_EEvRT_T0_T1_, symObjAddr: 0x70A4, symBinAddr: 0x100008F34, symSize: 0x70 }
  - { offsetInCU: 0x167BE, offset: 0x167BE, size: 0x8, addend: 0x0, symName: __ZNSt3__1neB7v160006IPmS1_EEbRKNS_16reverse_iteratorIT_EERKNS2_IT0_EE, symObjAddr: 0x7148, symBinAddr: 0x100008FD8, symSize: 0x48 }
  - { offsetInCU: 0x1680A, offset: 0x1680A, size: 0x8, addend: 0x0, symName: __ZNSt3__112__to_addressB7v160006INS_16reverse_iteratorIPmEEvEENS_5decayIDTclsr19__to_address_helperIT_EE6__callclsr3stdE7declvalIRKS5_EEEEE4typeES7_, symObjAddr: 0x7190, symBinAddr: 0x100009020, symSize: 0x24 }
  - { offsetInCU: 0x16869, offset: 0x16869, size: 0x8, addend: 0x0, symName: __ZNSt3__17getlineB7v160006IcNS_11char_traitsIcEENS_9allocatorIcEEEERNS_13basic_istreamIT_T0_EES9_RNS_12basic_stringIS6_S7_T1_EES6_, symObjAddr: 0x7308, symBinAddr: 0x100009198, symSize: 0x238 }
  - { offsetInCU: 0x16927, offset: 0x16927, size: 0x8, addend: 0x0, symName: __ZNSt3__125__debug_db_invalidate_allB7v160006INS_12basic_stringIcNS_11char_traitsIcEENS_9allocatorIcEEEEEEvPT_, symObjAddr: 0x7824, symBinAddr: 0x1000096B4, symSize: 0x10 }
  - { offsetInCU: 0x16B44, offset: 0x16B44, size: 0x8, addend: 0x0, symName: __ZNSt3__1neB7v160006IPNS_4pairINS_6vectorImNS_9allocatorImEEEES5_EEEEbRKNS_11__wrap_iterIT_EESC_, symObjAddr: 0x7DD4, symBinAddr: 0x100009C64, symSize: 0x34 }
  - { offsetInCU: 0x16B87, offset: 0x16B87, size: 0x8, addend: 0x0, symName: __ZNSt3__1eqB7v160006IPNS_4pairINS_6vectorImNS_9allocatorImEEEES5_EEEEbRKNS_11__wrap_iterIT_EESC_, symObjAddr: 0x7E7C, symBinAddr: 0x100009D0C, symSize: 0x48 }
  - { offsetInCU: 0x16BCA, offset: 0x16BCA, size: 0x8, addend: 0x0, symName: __ZNSt3__13maxB7v160006ImEERKT_S3_S3_, symObjAddr: 0x83E4, symBinAddr: 0x10000A274, symSize: 0x2C }
  - { offsetInCU: 0x16C0D, offset: 0x16C0D, size: 0x8, addend: 0x0, symName: __ZNSt3__13maxB7v160006ImNS_6__lessImmEEEERKT_S5_S5_T0_, symObjAddr: 0x8410, symBinAddr: 0x10000A2A0, symSize: 0x54 }
  - { offsetInCU: 0x16C67, offset: 0x16C67, size: 0x8, addend: 0x0, symName: __ZNSt3__142__uninitialized_allocator_move_if_noexceptB7v160006INS_9allocatorImEENS_16reverse_iteratorIPmEES5_mvEET1_RT_T0_S9_S6_, symObjAddr: 0x875C, symBinAddr: 0x10000A5EC, symSize: 0x78 }
  - { offsetInCU: 0x16CE4, offset: 0x16CE4, size: 0x8, addend: 0x0, symName: __ZNSt3__14swapB7v160006IPmEENS_9enable_ifIXaasr21is_move_constructibleIT_EE5valuesr18is_move_assignableIS3_EE5valueEvE4typeERS3_S6_, symObjAddr: 0x87D4, symBinAddr: 0x10000A664, symSize: 0x3C }
  - { offsetInCU: 0x16D35, offset: 0x16D35, size: 0x8, addend: 0x0, symName: __ZNSt3__125__debug_db_invalidate_allB7v160006INS_6vectorImNS_9allocatorImEEEEEEvPT_, symObjAddr: 0x8810, symBinAddr: 0x10000A6A0, symSize: 0x10 }
  - { offsetInCU: 0x16D66, offset: 0x16D66, size: 0x8, addend: 0x0, symName: __ZNSt3__14moveB7v160006INS_16reverse_iteratorIPmEES3_EET0_T_S5_S4_, symObjAddr: 0x8820, symBinAddr: 0x10000A6B0, symSize: 0x78 }
  - { offsetInCU: 0x16DC0, offset: 0x16DC0, size: 0x8, addend: 0x0, symName: __ZNSt3__16__moveB7v160006INS_17_ClassicAlgPolicyENS_16reverse_iteratorIPmEES4_S4_EENS_4pairIT0_T2_EES6_T1_S7_, symObjAddr: 0x8898, symBinAddr: 0x10000A728, symSize: 0x64 }
  - { offsetInCU: 0x16E2C, offset: 0x16E2C, size: 0x8, addend: 0x0, symName: __ZNSt3__123__dispatch_copy_or_moveB7v160006INS_17_ClassicAlgPolicyENS_11__move_loopIS1_EENS_14__move_trivialENS_16reverse_iteratorIPmEES7_S7_EENS_4pairIT2_T4_EES9_T3_SA_, symObjAddr: 0x88FC, symBinAddr: 0x10000A78C, symSize: 0x64 }
  - { offsetInCU: 0x16EAA, offset: 0x16EAA, size: 0x8, addend: 0x0, symName: __ZNSt3__121__unwrap_and_dispatchB7v160006INS_10__overloadINS_11__move_loopINS_17_ClassicAlgPolicyEEENS_14__move_trivialEEENS_16reverse_iteratorIPmEES9_S9_Li0EEENS_4pairIT0_T2_EESB_T1_SC_, symObjAddr: 0x8960, symBinAddr: 0x10000A7F0, symSize: 0x12C }
  - { offsetInCU: 0x16F3A, offset: 0x16F3A, size: 0x8, addend: 0x0, symName: __ZNSt3__114__unwrap_rangeB7v160006INS_16reverse_iteratorIPmEES3_EENS_4pairIT0_S5_EET_S7_, symObjAddr: 0x8A8C, symBinAddr: 0x10000A91C, symSize: 0x84 }
  - { offsetInCU: 0x170B5, offset: 0x170B5, size: 0x8, addend: 0x0, symName: __ZNSt3__113__unwrap_iterB7v160006INS_16reverse_iteratorIPmEENS_18__unwrap_iter_implIS3_Lb0EEELi0EEEDTclsrT0_8__unwrapclsr3stdE7declvalIT_EEEES7_, symObjAddr: 0x8BB0, symBinAddr: 0x10000AA40, symSize: 0x44 }
  - { offsetInCU: 0x170F9, offset: 0x170F9, size: 0x8, addend: 0x0, symName: __ZNSt3__19make_pairB7v160006INS_16reverse_iteratorIPmEES3_EENS_4pairINS_18__unwrap_ref_decayIT_E4typeENS5_IT0_E4typeEEEOS6_OS9_, symObjAddr: 0x8BF4, symBinAddr: 0x10000AA84, symSize: 0x38 }
  - { offsetInCU: 0x17148, offset: 0x17148, size: 0x8, addend: 0x0, symName: __ZNSt3__114__rewrap_rangeB7v160006INS_16reverse_iteratorIPmEES3_EET_S4_T0_, symObjAddr: 0x8C2C, symBinAddr: 0x10000AABC, symSize: 0x5C }
  - { offsetInCU: 0x17194, offset: 0x17194, size: 0x8, addend: 0x0, symName: __ZNSt3__113__rewrap_iterB7v160006INS_16reverse_iteratorIPmEES3_NS_18__unwrap_iter_implIS3_Lb0EEEEET_S6_T0_, symObjAddr: 0x8C88, symBinAddr: 0x10000AB18, symSize: 0x74 }
  - { offsetInCU: 0x1729B, offset: 0x1729B, size: 0x8, addend: 0x0, symName: __ZNSt3__119__allocate_at_leastB7v160006INS_9allocatorINS_4pairIffEEEEEENS_19__allocation_resultINS_16allocator_traitsIT_E7pointerEEERS7_m, symObjAddr: 0x9448, symBinAddr: 0x10000B2D8, symSize: 0x40 }
  - { offsetInCU: 0x172DE, offset: 0x172DE, size: 0x8, addend: 0x0, symName: __ZNSt3__142__uninitialized_allocator_move_if_noexceptB7v160006INS_9allocatorINS_4pairIffEEEENS_16reverse_iteratorIPS3_EES7_S7_EET2_RT_T0_T1_S8_, symObjAddr: 0x9610, symBinAddr: 0x10000B4A0, symSize: 0x12C }
  - { offsetInCU: 0x1737E, offset: 0x1737E, size: 0x8, addend: 0x0, symName: __ZNSt3__14swapB7v160006IPNS_4pairIffEEEENS_9enable_ifIXaasr21is_move_constructibleIT_EE5valuesr18is_move_assignableIS5_EE5valueEvE4typeERS5_S8_, symObjAddr: 0x9788, symBinAddr: 0x10000B618, symSize: 0x3C }
  - { offsetInCU: 0x173CF, offset: 0x173CF, size: 0x8, addend: 0x0, symName: __ZNSt3__125__debug_db_invalidate_allB7v160006INS_6vectorINS_4pairIffEENS_9allocatorIS3_EEEEEEvPT_, symObjAddr: 0x9898, symBinAddr: 0x10000B728, symSize: 0x10 }
  - { offsetInCU: 0x17400, offset: 0x17400, size: 0x8, addend: 0x0, symName: __ZNSt3__122__make_exception_guardB7v160006INS_29_AllocatorDestroyRangeReverseINS_9allocatorINS_4pairIffEEEENS_16reverse_iteratorIPS4_EEEEEENS_28__exception_guard_exceptionsIT_EESB_, symObjAddr: 0x98A8, symBinAddr: 0x10000B738, symSize: 0x4C }
  - { offsetInCU: 0x17436, offset: 0x17436, size: 0x8, addend: 0x0, symName: __ZNSt3__1neB7v160006IPNS_4pairIffEES3_EEbRKNS_16reverse_iteratorIT_EERKNS4_IT0_EE, symObjAddr: 0x9938, symBinAddr: 0x10000B7C8, symSize: 0x48 }
  - { offsetInCU: 0x17482, offset: 0x17482, size: 0x8, addend: 0x0, symName: __ZNSt3__112__to_addressB7v160006INS_16reverse_iteratorIPNS_4pairIffEEEEvEENS_5decayIDTclsr19__to_address_helperIT_EE6__callclsr3stdE7declvalIRKS7_EEEEE4typeES9_, symObjAddr: 0x99B4, symBinAddr: 0x10000B844, symSize: 0x24 }
  - { offsetInCU: 0x174E1, offset: 0x174E1, size: 0x8, addend: 0x0, symName: __ZNSt3__119__allocator_destroyB7v160006INS_9allocatorINS_4pairIffEEEENS_16reverse_iteratorINS5_IPS3_EEEES8_EEvRT_T0_T1_, symObjAddr: 0x9C8C, symBinAddr: 0x10000BB1C, symSize: 0x70 }
  - { offsetInCU: 0x17546, offset: 0x17546, size: 0x8, addend: 0x0, symName: __ZNSt3__1neB7v160006INS_16reverse_iteratorIPNS_4pairIffEEEES5_EEbRKNS1_IT_EERKNS1_IT0_EE, symObjAddr: 0x9D38, symBinAddr: 0x10000BBC8, symSize: 0x60 }
  - { offsetInCU: 0x17592, offset: 0x17592, size: 0x8, addend: 0x0, symName: __ZNSt3__112__to_addressB7v160006INS_16reverse_iteratorINS1_IPNS_4pairIffEEEEEEvEENS_5decayIDTclsr19__to_address_helperIT_EE6__callclsr3stdE7declvalIRKS8_EEEEE4typeESA_, symObjAddr: 0x9D98, symBinAddr: 0x10000BC28, symSize: 0x24 }
  - { offsetInCU: 0x175F1, offset: 0x175F1, size: 0x8, addend: 0x0, symName: __ZNSt3__13getB7v160006ILm0EmmEEONS_13tuple_elementIXT_ENS_4pairIT0_T1_EEE4typeEOS5_, symObjAddr: 0xA124, symBinAddr: 0x10000BFB4, symSize: 0x24 }
  - { offsetInCU: 0x1763A, offset: 0x1763A, size: 0x8, addend: 0x0, symName: __ZNSt3__13getB7v160006ILm1EmmEEONS_13tuple_elementIXT_ENS_4pairIT0_T1_EEE4typeEOS5_, symObjAddr: 0xA148, symBinAddr: 0x10000BFD8, symSize: 0x24 }
  - { offsetInCU: 0x17683, offset: 0x17683, size: 0x8, addend: 0x0, symName: __ZNSt3__122__make_exception_guardB7v160006INS_6vectorIfNS_9allocatorIfEEE16__destroy_vectorEEENS_28__exception_guard_exceptionsIT_EES7_, symObjAddr: 0xA2BC, symBinAddr: 0x10000C14C, symSize: 0x40 }
  - { offsetInCU: 0x176B8, offset: 0x176B8, size: 0x8, addend: 0x0, symName: __ZNSt3__119__debug_db_insert_cB7v160006INS_6vectorIfNS_9allocatorIfEEEEEEvPT_, symObjAddr: 0xA330, symBinAddr: 0x10000C1C0, symSize: 0x10 }
  - { offsetInCU: 0x176E9, offset: 0x176E9, size: 0x8, addend: 0x0, symName: __ZNSt3__119__allocate_at_leastB7v160006INS_9allocatorIfEEEENS_19__allocation_resultINS_16allocator_traitsIT_E7pointerEEERS5_m, symObjAddr: 0xA6C0, symBinAddr: 0x10000C550, symSize: 0x40 }
  - { offsetInCU: 0x1772C, offset: 0x1772C, size: 0x8, addend: 0x0, symName: __ZNSt3__112__to_addressB7v160006IfEEPT_S2_, symObjAddr: 0xA9E4, symBinAddr: 0x10000C874, symSize: 0x14 }
  - { offsetInCU: 0x17761, offset: 0x17761, size: 0x8, addend: 0x0, symName: __ZNSt3__118__debug_db_erase_cB7v160006INS_6vectorIfNS_9allocatorIfEEEEEEvPT_, symObjAddr: 0xAD24, symBinAddr: 0x10000CBB4, symSize: 0x10 }
  - { offsetInCU: 0x17792, offset: 0x17792, size: 0x8, addend: 0x0, symName: __ZNSt3__122__make_exception_guardB7v160006INS_6vectorINS1_IfNS_9allocatorIfEEEENS2_IS4_EEE16__destroy_vectorEEENS_28__exception_guard_exceptionsIT_EES9_, symObjAddr: 0xB004, symBinAddr: 0x10000CE94, symSize: 0x40 }
  - { offsetInCU: 0x177C7, offset: 0x177C7, size: 0x8, addend: 0x0, symName: __ZNSt3__119__debug_db_insert_cB7v160006INS_6vectorINS1_IfNS_9allocatorIfEEEENS2_IS4_EEEEEEvPT_, symObjAddr: 0xB044, symBinAddr: 0x10000CED4, symSize: 0x10 }
  - { offsetInCU: 0x177F8, offset: 0x177F8, size: 0x8, addend: 0x0, symName: __ZNSt3__119__allocate_at_leastB7v160006INS_9allocatorINS_6vectorIfNS1_IfEEEEEEEENS_19__allocation_resultINS_16allocator_traitsIT_E7pointerEEERS8_m, symObjAddr: 0xB3BC, symBinAddr: 0x10000D24C, symSize: 0x40 }
  - { offsetInCU: 0x1783B, offset: 0x1783B, size: 0x8, addend: 0x0, symName: __ZNSt3__130__uninitialized_allocator_copyB7v160006INS_9allocatorIfEEPfS3_S3_EET2_RT_T0_T1_S4_, symObjAddr: 0xB9AC, symBinAddr: 0x10000D83C, symSize: 0xF4 }
  - { offsetInCU: 0x178D9, offset: 0x178D9, size: 0x8, addend: 0x0, symName: __ZNSt3__122__make_exception_guardB7v160006INS_29_AllocatorDestroyRangeReverseINS_9allocatorIfEEPfEEEENS_28__exception_guard_exceptionsIT_EES7_, symObjAddr: 0xBAA0, symBinAddr: 0x10000D930, symSize: 0x4C }
  - { offsetInCU: 0x1790F, offset: 0x1790F, size: 0x8, addend: 0x0, symName: __ZNSt3__119__allocator_destroyB7v160006INS_9allocatorIfEENS_16reverse_iteratorIPfEES5_EEvRT_T0_T1_, symObjAddr: 0xBD28, symBinAddr: 0x10000DBB8, symSize: 0x70 }
  - { offsetInCU: 0x17972, offset: 0x17972, size: 0x8, addend: 0x0, symName: __ZNSt3__1neB7v160006IPfS1_EEbRKNS_16reverse_iteratorIT_EERKNS2_IT0_EE, symObjAddr: 0xBDCC, symBinAddr: 0x10000DC5C, symSize: 0x48 }
  - { offsetInCU: 0x179BE, offset: 0x179BE, size: 0x8, addend: 0x0, symName: __ZNSt3__112__to_addressB7v160006INS_16reverse_iteratorIPfEEvEENS_5decayIDTclsr19__to_address_helperIT_EE6__callclsr3stdE7declvalIRKS5_EEEEE4typeES7_, symObjAddr: 0xBE14, symBinAddr: 0x10000DCA4, symSize: 0x24 }
  - { offsetInCU: 0x17A1D, offset: 0x17A1D, size: 0x8, addend: 0x0, symName: __ZNSt3__1neB7v160006IPKNS_4pairINS_6vectorImNS_9allocatorImEEEES5_EEEEbRKNS_11__wrap_iterIT_EESD_, symObjAddr: 0xC020, symBinAddr: 0x10000DEB0, symSize: 0x34 }
  - { offsetInCU: 0x17A60, offset: 0x17A60, size: 0x8, addend: 0x0, symName: __ZNSt3__1eqB7v160006IPKNS_4pairINS_6vectorImNS_9allocatorImEEEES5_EEEEbRKNS_11__wrap_iterIT_EESD_, symObjAddr: 0xC1E8, symBinAddr: 0x10000E078, symSize: 0x48 }
  - { offsetInCU: 0x17AA3, offset: 0x17AA3, size: 0x8, addend: 0x0, symName: '__ZNSt3__18for_eachB7v160006INS_11__wrap_iterIPKmEEZZNK8QPEngine14_createAMatrixERKNS_6vectorINS6_IfNS_9allocatorIfEEEENS7_IS9_EEEERKNS6_INS_4pairINS6_ImNS7_ImEEEESG_EENS7_ISH_EEEEENK3$_2clISH_EEDaRKT_EUlSP_E_EET0_SP_SP_ST_', symObjAddr: 0xC2F8, symBinAddr: 0x10000E188, symSize: 0x6C }
  - { offsetInCU: 0x17AFD, offset: 0x17AFD, size: 0x8, addend: 0x0, symName: __ZNSt3__122__make_exception_guardB7v160006INS_6vectorINS_4pairIffEENS_9allocatorIS3_EEE16__destroy_vectorEEENS_28__exception_guard_exceptionsIT_EES9_, symObjAddr: 0xC55C, symBinAddr: 0x10000E3EC, symSize: 0x40 }
  - { offsetInCU: 0x18880, offset: 0x18880, size: 0x8, addend: 0x0, symName: __ZSt28__throw_bad_array_new_lengthB7v160006v, symObjAddr: 0x5B94, symBinAddr: 0x100007A24, symSize: 0x34 }
  - { offsetInCU: 0x19DD0, offset: 0x19DD0, size: 0x8, addend: 0x0, symName: __ZNSt3__16vectorImNS_9allocatorImEEE26__swap_out_circular_bufferERNS_14__split_bufferImRS2_EE, symObjAddr: 0x82A0, symBinAddr: 0x10000A130, symSize: 0x118 }
  - { offsetInCU: 0x19E13, offset: 0x19E13, size: 0x8, addend: 0x0, symName: __ZNSt3__16vectorINS_4pairIffEENS_9allocatorIS2_EEE26__swap_out_circular_bufferERNS_14__split_bufferIS2_RS4_EE, symObjAddr: 0x915C, symBinAddr: 0x10000AFEC, symSize: 0x118 }
  - { offsetInCU: 0x1BED6, offset: 0x1BED6, size: 0x8, addend: 0x0, symName: _main, symObjAddr: 0x0, symBinAddr: 0x100001E90, symSize: 0x2E8 }
  - { offsetInCU: 0x1BF51, offset: 0x1BF51, size: 0x8, addend: 0x0, symName: __ZNSt3__113basic_ostreamIcNS_11char_traitsIcEEElsB7v160006EPFRS3_S4_E, symObjAddr: 0x330, symBinAddr: 0x1000021C0, symSize: 0x2C }
  - { offsetInCU: 0x1BF85, offset: 0x1BF85, size: 0x8, addend: 0x0, symName: __ZNSt3__114basic_ifstreamIcNS_11char_traitsIcEEEC1EPKcj, symObjAddr: 0x3B4, symBinAddr: 0x100002244, symSize: 0x16C }
  - { offsetInCU: 0x1BFCF, offset: 0x1BFCF, size: 0x8, addend: 0x0, symName: __ZNSt3__114basic_ofstreamIcNS_11char_traitsIcEEEC1EPKcj, symObjAddr: 0x520, symBinAddr: 0x1000023B0, symSize: 0x16C }
  - { offsetInCU: 0x1C019, offset: 0x1C019, size: 0x8, addend: 0x0, symName: __ZNKSt3__114basic_ifstreamIcNS_11char_traitsIcEEE7is_openEv, symObjAddr: 0x68C, symBinAddr: 0x10000251C, symSize: 0x2C }
  - { offsetInCU: 0x1C041, offset: 0x1C041, size: 0x8, addend: 0x0, symName: __ZN8QPEngineC1Em, symObjAddr: 0x6B8, symBinAddr: 0x100002548, symSize: 0x34 }
  - { offsetInCU: 0x1C079, offset: 0x1C079, size: 0x8, addend: 0x0, symName: __ZN8QPEngine3runERNSt3__114basic_ifstreamIcNS0_11char_traitsIcEEEERNS0_14basic_ofstreamIcS3_EE, symObjAddr: 0x6EC, symBinAddr: 0x10000257C, symSize: 0x120 }
  - { offsetInCU: 0x1C0F6, offset: 0x1C0F6, size: 0x8, addend: 0x0, symName: __ZNSt3__114basic_ifstreamIcNS_11char_traitsIcEEE5closeEv, symObjAddr: 0x80C, symBinAddr: 0x10000269C, symSize: 0x58 }
  - { offsetInCU: 0x1C11E, offset: 0x1C11E, size: 0x8, addend: 0x0, symName: __ZNSt3__114basic_ofstreamIcNS_11char_traitsIcEEE5closeEv, symObjAddr: 0x864, symBinAddr: 0x1000026F4, symSize: 0x58 }
  - { offsetInCU: 0x1C146, offset: 0x1C146, size: 0x8, addend: 0x0, symName: __ZN8QPEngineD1Ev, symObjAddr: 0x8BC, symBinAddr: 0x10000274C, symSize: 0x2C }
  - { offsetInCU: 0x1C177, offset: 0x1C177, size: 0x8, addend: 0x0, symName: __ZNSt3__114basic_ofstreamIcNS_11char_traitsIcEEED1Ev, symObjAddr: 0x8E8, symBinAddr: 0x100002778, symSize: 0x40 }
  - { offsetInCU: 0x1C1A9, offset: 0x1C1A9, size: 0x8, addend: 0x0, symName: __ZNSt3__114basic_ifstreamIcNS_11char_traitsIcEEED1Ev, symObjAddr: 0x928, symBinAddr: 0x1000027B8, symSize: 0x40 }
  - { offsetInCU: 0x1C1D6, offset: 0x1C1D6, size: 0x8, addend: 0x0, symName: __ZN8QPEngine12_readNetlistERNSt3__114basic_ifstreamIcNS0_11char_traitsIcEEEE, symObjAddr: 0x974, symBinAddr: 0x100002804, symSize: 0x570 }
  - { offsetInCU: 0x1C332, offset: 0x1C332, size: 0x8, addend: 0x0, symName: __ZNK8QPEngine13_printNetListERKNSt3__16vectorINS0_4pairINS1_ImNS0_9allocatorImEEEES5_EENS3_IS6_EEEE, symObjAddr: 0xEE4, symBinAddr: 0x100002D74, symSize: 0x168 }
  - { offsetInCU: 0x1C3F4, offset: 0x1C3F4, size: 0x8, addend: 0x0, symName: __ZNK8QPEngine20_printCoordinateListERKNSt3__16vectorINS0_4pairIffEENS0_9allocatorIS3_EEEE, symObjAddr: 0x104C, symBinAddr: 0x100002EDC, symSize: 0x4C }
  - { offsetInCU: 0x1C450, offset: 0x1C450, size: 0x8, addend: 0x0, symName: __ZNK8QPEngine14_createCMatrixERKNSt3__16vectorINS0_4pairINS1_ImNS0_9allocatorImEEEES5_EENS3_IS6_EEEE, symObjAddr: 0x1098, symBinAddr: 0x100002F28, symSize: 0xF4 }
  - { offsetInCU: 0x1C4D9, offset: 0x1C4D9, size: 0x8, addend: 0x0, symName: __ZNK8QPEngine12_printMatrixERKNSt3__16vectorINS1_IfNS0_9allocatorIfEEEENS2_IS4_EEEE, symObjAddr: 0x118C, symBinAddr: 0x10000301C, symSize: 0x4C }
  - { offsetInCU: 0x1C535, offset: 0x1C535, size: 0x8, addend: 0x0, symName: __ZNK8QPEngine14_createAMatrixERKNSt3__16vectorINS1_IfNS0_9allocatorIfEEEENS2_IS4_EEEERKNS1_INS0_4pairINS1_ImNS2_ImEEEESB_EENS2_ISC_EEEE, symObjAddr: 0x11D8, symBinAddr: 0x100003068, symSize: 0x340 }
  - { offsetInCU: 0x1C679, offset: 0x1C679, size: 0x8, addend: 0x0, symName: __ZNK8QPEngine14_createBVectorERKNSt3__16vectorINS0_4pairINS1_ImNS0_9allocatorImEEEES5_EENS3_IS6_EEEERKNS1_INS2_IffEENS3_ISB_EEEE, symObjAddr: 0x1518, symBinAddr: 0x1000033A8, symSize: 0x150 }
  - { offsetInCU: 0x1C765, offset: 0x1C765, size: 0x8, addend: 0x0, symName: __ZNSt3__16vectorINS_4pairIffEENS_9allocatorIS2_EEED1B7v160006Ev, symObjAddr: 0x1668, symBinAddr: 0x1000034F8, symSize: 0x2C }
  - { offsetInCU: 0x1C78F, offset: 0x1C78F, size: 0x8, addend: 0x0, symName: __ZNSt3__16vectorINS0_IfNS_9allocatorIfEEEENS1_IS3_EEED1B7v160006Ev, symObjAddr: 0x1694, symBinAddr: 0x100003524, symSize: 0x2C }
  - { offsetInCU: 0x1C7B9, offset: 0x1C7B9, size: 0x8, addend: 0x0, symName: __ZNSt3__16vectorINS_4pairINS0_ImNS_9allocatorImEEEES4_EENS2_IS5_EEED1B7v160006Ev, symObjAddr: 0x16C0, symBinAddr: 0x100003550, symSize: 0x2C }
  - { offsetInCU: 0x1C7E3, offset: 0x1C7E3, size: 0x8, addend: 0x0, symName: __ZNSt3__16vectorImNS_9allocatorImEEEC1EmRKm, symObjAddr: 0x16EC, symBinAddr: 0x10000357C, symSize: 0x3C }
  - { offsetInCU: 0x1C82D, offset: 0x1C82D, size: 0x8, addend: 0x0, symName: __ZNSt3__16vectorImNS_9allocatorImEEEC1B7v160006Ev, symObjAddr: 0x1728, symBinAddr: 0x1000035B8, symSize: 0x2C }
  - { offsetInCU: 0x1C857, offset: 0x1C857, size: 0x8, addend: 0x0, symName: __ZNSt3__14pairINS_6vectorImNS_9allocatorImEEEES4_EC1B7v160006IS4_S4_LPv0EEEOT_OT0_, symObjAddr: 0x1754, symBinAddr: 0x1000035E4, symSize: 0x3C }
  - { offsetInCU: 0x1C8B5, offset: 0x1C8B5, size: 0x8, addend: 0x0, symName: __ZNSt3__16vectorINS_4pairINS0_ImNS_9allocatorImEEEES4_EENS2_IS5_EEEC1EmRKS5_, symObjAddr: 0x1790, symBinAddr: 0x100003620, symSize: 0x3C }
  - { offsetInCU: 0x1C8FF, offset: 0x1C8FF, size: 0x8, addend: 0x0, symName: __ZNSt3__14pairINS_6vectorImNS_9allocatorImEEEES4_ED1Ev, symObjAddr: 0x17CC, symBinAddr: 0x10000365C, symSize: 0x2C }
  - { offsetInCU: 0x1C92B, offset: 0x1C92B, size: 0x8, addend: 0x0, symName: __ZNSt3__16vectorImNS_9allocatorImEEED1B7v160006Ev, symObjAddr: 0x17F8, symBinAddr: 0x100003688, symSize: 0x2C }
  - { offsetInCU: 0x1C955, offset: 0x1C955, size: 0x8, addend: 0x0, symName: __ZNSt3__112basic_stringIcNS_11char_traitsIcEENS_9allocatorIcEEEC1B7v160006Ev, symObjAddr: 0x1824, symBinAddr: 0x1000036B4, symSize: 0x2C }
  - { offsetInCU: 0x1C97F, offset: 0x1C97F, size: 0x8, addend: 0x0, symName: __ZNKSt3__19basic_iosIcNS_11char_traitsIcEEEcvbB7v160006Ev, symObjAddr: 0x18AC, symBinAddr: 0x10000373C, symSize: 0x2C }
  - { offsetInCU: 0x1C9F7, offset: 0x1C9F7, size: 0x8, addend: 0x0, symName: __ZNSt3__119basic_istringstreamIcNS_11char_traitsIcEENS_9allocatorIcEEEC1B7v160006ERKNS_12basic_stringIcS2_S4_EEj, symObjAddr: 0x18D8, symBinAddr: 0x100003768, symSize: 0xFC }
  - { offsetInCU: 0x1CA3F, offset: 0x1CA3F, size: 0x8, addend: 0x0, symName: __ZNK8QPEngine12_checkBoundsEmmRKNSt3__112basic_stringIcNS0_11char_traitsIcEENS0_9allocatorIcEEEE, symObjAddr: 0x19D4, symBinAddr: 0x100003864, symSize: 0x98 }
  - { offsetInCU: 0x1CA95, offset: 0x1CA95, size: 0x8, addend: 0x0, symName: __ZNSt3__112basic_stringIcNS_11char_traitsIcEENS_9allocatorIcEEEC1B7v160006IDnEEPKc, symObjAddr: 0x1A6C, symBinAddr: 0x1000038FC, symSize: 0x34 }
  - { offsetInCU: 0x1CAD3, offset: 0x1CAD3, size: 0x8, addend: 0x0, symName: __ZNKSt3__19basic_iosIcNS_11char_traitsIcEEE3eofB7v160006Ev, symObjAddr: 0x1AA0, symBinAddr: 0x100003930, symSize: 0x28 }
  - { offsetInCU: 0x1CAF9, offset: 0x1CAF9, size: 0x8, addend: 0x0, symName: __ZNSt3__16vectorINS_4pairINS0_ImNS_9allocatorImEEEES4_EENS2_IS5_EEE5beginB7v160006Ev, symObjAddr: 0x1B34, symBinAddr: 0x1000039C4, symSize: 0x30 }
  - { offsetInCU: 0x1CB21, offset: 0x1CB21, size: 0x8, addend: 0x0, symName: __ZNSt3__16vectorINS_4pairINS0_ImNS_9allocatorImEEEES4_EENS2_IS5_EEE3endB7v160006Ev, symObjAddr: 0x1B64, symBinAddr: 0x1000039F4, symSize: 0x30 }
  - { offsetInCU: 0x1CB49, offset: 0x1CB49, size: 0x8, addend: 0x0, symName: __ZNSt3__16vectorINS_4pairIffEENS_9allocatorIS2_EEE7reserveEm, symObjAddr: 0x1B94, symBinAddr: 0x100003A24, symSize: 0xE8 }
  - { offsetInCU: 0x1CBA5, offset: 0x1CBA5, size: 0x8, addend: 0x0, symName: __ZNSt3__16vectorINS_4pairINS0_ImNS_9allocatorImEEEES4_EENS2_IS5_EEEixB7v160006Em, symObjAddr: 0x1C7C, symBinAddr: 0x100003B0C, symSize: 0x2C }
  - { offsetInCU: 0x1CBDC, offset: 0x1CBDC, size: 0x8, addend: 0x0, symName: __ZNSt3__16vectorImNS_9allocatorImEEEixB7v160006Em, symObjAddr: 0x1CA8, symBinAddr: 0x100003B38, symSize: 0x24 }
  - { offsetInCU: 0x1CC13, offset: 0x1CC13, size: 0x8, addend: 0x0, symName: __ZNSt3__16vectorINS_4pairIffEENS_9allocatorIS2_EEEixB7v160006Em, symObjAddr: 0x1D04, symBinAddr: 0x100003B94, symSize: 0x24 }
  - { offsetInCU: 0x1CC64, offset: 0x1CC64, size: 0x8, addend: 0x0, symName: __ZNSt3__14pairIffEaSB7v160006INS0_ImmEELPv0EEERS1_OT_, symObjAddr: 0x1D28, symBinAddr: 0x100003BB8, symSize: 0x64 }
  - { offsetInCU: 0x1CCAD, offset: 0x1CCAD, size: 0x8, addend: 0x0, symName: __ZNSt3__119basic_istringstreamIcNS_11char_traitsIcEENS_9allocatorIcEEED1Ev, symObjAddr: 0x1D8C, symBinAddr: 0x100003C1C, symSize: 0x40 }
  - { offsetInCU: 0x1CCDA, offset: 0x1CCDA, size: 0x8, addend: 0x0, symName: __ZNK8QPEngine12_getNumGatesERKNSt3__16vectorINS0_4pairINS1_ImNS0_9allocatorImEEEES5_EENS3_IS6_EEEE, symObjAddr: 0x1DCC, symBinAddr: 0x100003C5C, symSize: 0x60 }
  - { offsetInCU: 0x1CD11, offset: 0x1CD11, size: 0x8, addend: 0x0, symName: __ZNSt3__16vectorIfNS_9allocatorIfEEEC1EmRKf, symObjAddr: 0x1E2C, symBinAddr: 0x100003CBC, symSize: 0x3C }
  - { offsetInCU: 0x1CD5B, offset: 0x1CD5B, size: 0x8, addend: 0x0, symName: __ZNSt3__16vectorINS0_IfNS_9allocatorIfEEEENS1_IS3_EEEC1EmRKS3_, symObjAddr: 0x1E68, symBinAddr: 0x100003CF8, symSize: 0x3C }
  - { offsetInCU: 0x1CDA5, offset: 0x1CDA5, size: 0x8, addend: 0x0, symName: __ZNSt3__16vectorIfNS_9allocatorIfEEED1B7v160006Ev, symObjAddr: 0x1EA4, symBinAddr: 0x100003D34, symSize: 0x2C }
  - { offsetInCU: 0x1CDCF, offset: 0x1CDCF, size: 0x8, addend: 0x0, symName: __ZNKSt3__16vectorINS_4pairINS0_ImNS_9allocatorImEEEES4_EENS2_IS5_EEE5beginB7v160006Ev, symObjAddr: 0x1F3C, symBinAddr: 0x100003DCC, symSize: 0x30 }
  - { offsetInCU: 0x1CDF7, offset: 0x1CDF7, size: 0x8, addend: 0x0, symName: __ZNKSt3__16vectorINS_4pairINS0_ImNS_9allocatorImEEEES4_EENS2_IS5_EEE3endB7v160006Ev, symObjAddr: 0x1F6C, symBinAddr: 0x100003DFC, symSize: 0x30 }
  - { offsetInCU: 0x1CE1F, offset: 0x1CE1F, size: 0x8, addend: 0x0, symName: __ZNKSt3__16vectorINS0_IfNS_9allocatorIfEEEENS1_IS3_EEE4sizeB7v160006Ev, symObjAddr: 0x1F9C, symBinAddr: 0x100003E2C, symSize: 0x28 }
  - { offsetInCU: 0x1CE45, offset: 0x1CE45, size: 0x8, addend: 0x0, symName: __ZNKSt3__16vectorINS0_IfNS_9allocatorIfEEEENS1_IS3_EEEixB7v160006Em, symObjAddr: 0x1FC4, symBinAddr: 0x100003E54, symSize: 0x2C }
  - { offsetInCU: 0x1CE7C, offset: 0x1CE7C, size: 0x8, addend: 0x0, symName: __ZNKSt3__16vectorIfNS_9allocatorIfEEE4sizeB7v160006Ev, symObjAddr: 0x1FF0, symBinAddr: 0x100003E80, symSize: 0x28 }
  - { offsetInCU: 0x1CEA2, offset: 0x1CEA2, size: 0x8, addend: 0x0, symName: __ZNKSt3__16vectorIfNS_9allocatorIfEEE5beginB7v160006Ev, symObjAddr: 0x2110, symBinAddr: 0x100003FA0, symSize: 0x30 }
  - { offsetInCU: 0x1CECA, offset: 0x1CECA, size: 0x8, addend: 0x0, symName: __ZNKSt3__16vectorIfNS_9allocatorIfEEE3endB7v160006Ev, symObjAddr: 0x2140, symBinAddr: 0x100003FD0, symSize: 0x30 }
  - { offsetInCU: 0x1CEF2, offset: 0x1CEF2, size: 0x8, addend: 0x0, symName: __ZNSt3__16vectorINS0_IfNS_9allocatorIfEEEENS1_IS3_EEEixB7v160006Em, symObjAddr: 0x2170, symBinAddr: 0x100004000, symSize: 0x2C }
  - { offsetInCU: 0x1CF29, offset: 0x1CF29, size: 0x8, addend: 0x0, symName: __ZNSt3__16vectorIfNS_9allocatorIfEEEixB7v160006Em, symObjAddr: 0x219C, symBinAddr: 0x10000402C, symSize: 0x24 }
  - { offsetInCU: 0x1CF60, offset: 0x1CF60, size: 0x8, addend: 0x0, symName: __ZNKSt3__16vectorIfNS_9allocatorIfEEEixB7v160006Em, symObjAddr: 0x21C0, symBinAddr: 0x100004050, symSize: 0x24 }
  - { offsetInCU: 0x1CF97, offset: 0x1CF97, size: 0x8, addend: 0x0, symName: __ZNK8QPEngine12_getNumPortsERKNSt3__16vectorINS0_4pairIffEENS0_9allocatorIS3_EEEE, symObjAddr: 0x21E4, symBinAddr: 0x100004074, symSize: 0x28 }
  - { offsetInCU: 0x1CFD4, offset: 0x1CFD4, size: 0x8, addend: 0x0, symName: __ZNSt3__14pairIffEC1B7v160006IiiLPv0EEEOT_OT0_, symObjAddr: 0x220C, symBinAddr: 0x10000409C, symSize: 0x3C }
  - { offsetInCU: 0x1D032, offset: 0x1D032, size: 0x8, addend: 0x0, symName: __ZNSt3__16vectorINS_4pairIffEENS_9allocatorIS2_EEEC1EmRKS2_, symObjAddr: 0x2248, symBinAddr: 0x1000040D8, symSize: 0x3C }
  - { offsetInCU: 0x1D07C, offset: 0x1D07C, size: 0x8, addend: 0x0, symName: __ZN8QPEngineC2Em, symObjAddr: 0x2304, symBinAddr: 0x100004194, symSize: 0x38 }
  - { offsetInCU: 0x1D0B4, offset: 0x1D0B4, size: 0x8, addend: 0x0, symName: __ZNSt3__16vectorINS_4pairIffEENS_9allocatorIS2_EEEC1B7v160006Ev, symObjAddr: 0x233C, symBinAddr: 0x1000041CC, symSize: 0x2C }
  - { offsetInCU: 0x1D0DE, offset: 0x1D0DE, size: 0x8, addend: 0x0, symName: __ZNSt3__16vectorINS_4pairIffEENS_9allocatorIS2_EEEC2B7v160006Ev, symObjAddr: 0x2368, symBinAddr: 0x1000041F8, symSize: 0x58 }
  - { offsetInCU: 0x1D114, offset: 0x1D114, size: 0x8, addend: 0x0, symName: __ZNSt3__117__compressed_pairIPNS_4pairIffEENS_9allocatorIS2_EEEC1B7v160006IDnNS_18__default_init_tagEEEOT_OT0_, symObjAddr: 0x23C0, symBinAddr: 0x100004250, symSize: 0x3C }
  - { offsetInCU: 0x1D16C, offset: 0x1D16C, size: 0x8, addend: 0x0, symName: __ZNSt3__117__compressed_pairIPNS_4pairIffEENS_9allocatorIS2_EEEC2B7v160006IDnNS_18__default_init_tagEEEOT_OT0_, symObjAddr: 0x240C, symBinAddr: 0x10000429C, symSize: 0x40 }
  - { offsetInCU: 0x1D1C4, offset: 0x1D1C4, size: 0x8, addend: 0x0, symName: __ZNSt3__122__compressed_pair_elemIPNS_4pairIffEELi0ELb0EEC2B7v160006IDnvEEOT_, symObjAddr: 0x244C, symBinAddr: 0x1000042DC, symSize: 0x1C }
  - { offsetInCU: 0x1D206, offset: 0x1D206, size: 0x8, addend: 0x0, symName: __ZNSt3__122__compressed_pair_elemINS_9allocatorINS_4pairIffEEEELi1ELb1EEC2B7v160006ENS_18__default_init_tagE, symObjAddr: 0x2468, symBinAddr: 0x1000042F8, symSize: 0x2C }
  - { offsetInCU: 0x1D23B, offset: 0x1D23B, size: 0x8, addend: 0x0, symName: __ZNSt3__19allocatorINS_4pairIffEEEC2B7v160006Ev, symObjAddr: 0x2494, symBinAddr: 0x100004324, symSize: 0x2C }
  - { offsetInCU: 0x1D265, offset: 0x1D265, size: 0x8, addend: 0x0, symName: __ZNSt3__116__non_trivial_ifILb1ENS_9allocatorINS_4pairIffEEEEEC2B7v160006Ev, symObjAddr: 0x24C0, symBinAddr: 0x100004350, symSize: 0x14 }
  - { offsetInCU: 0x1D28F, offset: 0x1D28F, size: 0x8, addend: 0x0, symName: __ZN8QPEngineD2Ev, symObjAddr: 0x24D4, symBinAddr: 0x100004364, symSize: 0x2C }
  - { offsetInCU: 0x1D2BB, offset: 0x1D2BB, size: 0x8, addend: 0x0, symName: __ZNSt3__114basic_ofstreamIcNS_11char_traitsIcEEED2Ev, symObjAddr: 0x2500, symBinAddr: 0x100004390, symSize: 0x64 }
  - { offsetInCU: 0x1D2F5, offset: 0x1D2F5, size: 0x8, addend: 0x0, symName: __ZTv0_n24_NSt3__114basic_ofstreamIcNS_11char_traitsIcEEED1Ev, symObjAddr: 0x2564, symBinAddr: 0x1000043F4, symSize: 0x28 }
  - { offsetInCU: 0x1D30C, offset: 0x1D30C, size: 0x8, addend: 0x0, symName: __ZNSt3__114basic_ifstreamIcNS_11char_traitsIcEEED2Ev, symObjAddr: 0x258C, symBinAddr: 0x10000441C, symSize: 0x64 }
  - { offsetInCU: 0x1D346, offset: 0x1D346, size: 0x8, addend: 0x0, symName: __ZTv0_n24_NSt3__114basic_ifstreamIcNS_11char_traitsIcEEED1Ev, symObjAddr: 0x25F0, symBinAddr: 0x100004480, symSize: 0x28 }
  - { offsetInCU: 0x1D35D, offset: 0x1D35D, size: 0x8, addend: 0x0, symName: __ZNSt3__14pairINS_6vectorImNS_9allocatorImEEEES4_EC2B7v160006IS4_S4_LPv0EEEOT_OT0_, symObjAddr: 0x2618, symBinAddr: 0x1000044A8, symSize: 0x48 }
  - { offsetInCU: 0x1D3BB, offset: 0x1D3BB, size: 0x8, addend: 0x0, symName: __ZNSt3__16vectorImNS_9allocatorImEEEC1B7v160006EOS3_, symObjAddr: 0x2660, symBinAddr: 0x1000044F0, symSize: 0x34 }
  - { offsetInCU: 0x1D3F6, offset: 0x1D3F6, size: 0x8, addend: 0x0, symName: __ZNSt3__16vectorImNS_9allocatorImEEEC2B7v160006EOS3_, symObjAddr: 0x2694, symBinAddr: 0x100004524, symSize: 0xE0 }
  - { offsetInCU: 0x1D431, offset: 0x1D431, size: 0x8, addend: 0x0, symName: __ZNSt3__16vectorImNS_9allocatorImEEE7__allocB7v160006Ev, symObjAddr: 0x2774, symBinAddr: 0x100004604, symSize: 0x28 }
  - { offsetInCU: 0x1D45D, offset: 0x1D45D, size: 0x8, addend: 0x0, symName: __ZNSt3__117__compressed_pairIPmNS_9allocatorImEEEC1B7v160006IDnS3_EEOT_OT0_, symObjAddr: 0x279C, symBinAddr: 0x10000462C, symSize: 0x3C }
  - { offsetInCU: 0x1D4B5, offset: 0x1D4B5, size: 0x8, addend: 0x0, symName: __ZNSt3__16vectorImNS_9allocatorImEEE9__end_capB7v160006Ev, symObjAddr: 0x27FC, symBinAddr: 0x10000468C, symSize: 0x28 }
  - { offsetInCU: 0x1D4DB, offset: 0x1D4DB, size: 0x8, addend: 0x0, symName: __ZNSt3__117__compressed_pairIPmNS_9allocatorImEEE6secondB7v160006Ev, symObjAddr: 0x2824, symBinAddr: 0x1000046B4, symSize: 0x24 }
  - { offsetInCU: 0x1D501, offset: 0x1D501, size: 0x8, addend: 0x0, symName: __ZNSt3__122__compressed_pair_elemINS_9allocatorImEELi1ELb1EE5__getB7v160006Ev, symObjAddr: 0x2848, symBinAddr: 0x1000046D8, symSize: 0x14 }
  - { offsetInCU: 0x1D527, offset: 0x1D527, size: 0x8, addend: 0x0, symName: __ZNSt3__117__compressed_pairIPmNS_9allocatorImEEEC2B7v160006IDnS3_EEOT_OT0_, symObjAddr: 0x285C, symBinAddr: 0x1000046EC, symSize: 0x44 }
  - { offsetInCU: 0x1D57F, offset: 0x1D57F, size: 0x8, addend: 0x0, symName: __ZNSt3__122__compressed_pair_elemIPmLi0ELb0EEC2B7v160006IDnvEEOT_, symObjAddr: 0x28A0, symBinAddr: 0x100004730, symSize: 0x1C }
  - { offsetInCU: 0x1D5C1, offset: 0x1D5C1, size: 0x8, addend: 0x0, symName: __ZNSt3__122__compressed_pair_elemINS_9allocatorImEELi1ELb1EEC2B7v160006IS2_vEEOT_, symObjAddr: 0x28BC, symBinAddr: 0x10000474C, symSize: 0x18 }
  - { offsetInCU: 0x1D603, offset: 0x1D603, size: 0x8, addend: 0x0, symName: __ZNSt3__117__compressed_pairIPmNS_9allocatorImEEE5firstB7v160006Ev, symObjAddr: 0x28D4, symBinAddr: 0x100004764, symSize: 0x24 }
  - { offsetInCU: 0x1D629, offset: 0x1D629, size: 0x8, addend: 0x0, symName: __ZNSt3__122__compressed_pair_elemIPmLi0ELb0EE5__getB7v160006Ev, symObjAddr: 0x28F8, symBinAddr: 0x100004788, symSize: 0x14 }
  - { offsetInCU: 0x1D64F, offset: 0x1D64F, size: 0x8, addend: 0x0, symName: __ZNSt3__14pairINS_6vectorImNS_9allocatorImEEEES4_ED2Ev, symObjAddr: 0x290C, symBinAddr: 0x10000479C, symSize: 0x38 }
  - { offsetInCU: 0x1D67B, offset: 0x1D67B, size: 0x8, addend: 0x0, symName: __ZNSt12out_of_rangeC1B7v160006ERKNSt3__112basic_stringIcNS0_11char_traitsIcEENS0_9allocatorIcEEEE, symObjAddr: 0x2944, symBinAddr: 0x1000047D4, symSize: 0x34 }
  - { offsetInCU: 0x1D6B3, offset: 0x1D6B3, size: 0x8, addend: 0x0, symName: __ZNSt12out_of_rangeC2B7v160006ERKNSt3__112basic_stringIcNS0_11char_traitsIcEENS0_9allocatorIcEEEE, symObjAddr: 0x2978, symBinAddr: 0x100004808, symSize: 0x4C }
  - { offsetInCU: 0x1D6EB, offset: 0x1D6EB, size: 0x8, addend: 0x0, symName: __ZNSt3__14pairImmEC1B7v160006IRmS3_LPv0EEEOT_OT0_, symObjAddr: 0x29C4, symBinAddr: 0x100004854, symSize: 0x3C }
  - { offsetInCU: 0x1D749, offset: 0x1D749, size: 0x8, addend: 0x0, symName: __ZNSt3__14pairImmEC2B7v160006IRmS3_LPv0EEEOT_OT0_, symObjAddr: 0x2A00, symBinAddr: 0x100004890, symSize: 0x34 }
  - { offsetInCU: 0x1D7A7, offset: 0x1D7A7, size: 0x8, addend: 0x0, symName: __ZNSt3__119basic_istringstreamIcNS_11char_traitsIcEENS_9allocatorIcEEED2Ev, symObjAddr: 0x2A34, symBinAddr: 0x1000048C4, symSize: 0x64 }
  - { offsetInCU: 0x1D7E1, offset: 0x1D7E1, size: 0x8, addend: 0x0, symName: __ZTv0_n24_NSt3__119basic_istringstreamIcNS_11char_traitsIcEENS_9allocatorIcEEED1Ev, symObjAddr: 0x2A98, symBinAddr: 0x100004928, symSize: 0x28 }
  - { offsetInCU: 0x1D7FD, offset: 0x1D7FD, size: 0x8, addend: 0x0, symName: __ZNSt3__115basic_stringbufIcNS_11char_traitsIcEENS_9allocatorIcEEED1Ev, symObjAddr: 0x2AC0, symBinAddr: 0x100004950, symSize: 0x2C }
  - { offsetInCU: 0x1D82A, offset: 0x1D82A, size: 0x8, addend: 0x0, symName: __ZNSt3__115basic_stringbufIcNS_11char_traitsIcEENS_9allocatorIcEEED2Ev, symObjAddr: 0x2AEC, symBinAddr: 0x10000497C, symSize: 0x48 }
  - { offsetInCU: 0x1D857, offset: 0x1D857, size: 0x8, addend: 0x0, symName: __ZNSt3__14pairIffEC2B7v160006IiiLPv0EEEOT_OT0_, symObjAddr: 0x2B34, symBinAddr: 0x1000049C4, symSize: 0x3C }
  - { offsetInCU: 0x1D8B5, offset: 0x1D8B5, size: 0x8, addend: 0x0, symName: __ZNKSt3__16vectorINS_4pairINS0_ImNS_9allocatorImEEEES4_EENS2_IS5_EEE4sizeB7v160006Ev, symObjAddr: 0x2B70, symBinAddr: 0x100004A00, symSize: 0x28 }
  - { offsetInCU: 0x1D8DB, offset: 0x1D8DB, size: 0x8, addend: 0x0, symName: __ZNKSt3__16vectorINS_4pairINS0_ImNS_9allocatorImEEEES4_EENS2_IS5_EEEixB7v160006Em, symObjAddr: 0x2B98, symBinAddr: 0x100004A28, symSize: 0x2C }
  - { offsetInCU: 0x1D912, offset: 0x1D912, size: 0x8, addend: 0x0, symName: __ZNKSt3__16vectorImNS_9allocatorImEEE4sizeB7v160006Ev, symObjAddr: 0x2BC4, symBinAddr: 0x100004A54, symSize: 0x28 }
  - { offsetInCU: 0x1D938, offset: 0x1D938, size: 0x8, addend: 0x0, symName: __ZNKSt3__16vectorINS_4pairIffEENS_9allocatorIS2_EEE4sizeB7v160006Ev, symObjAddr: 0x2BEC, symBinAddr: 0x100004A7C, symSize: 0x28 }
  - { offsetInCU: 0x1D95E, offset: 0x1D95E, size: 0x8, addend: 0x0, symName: __ZNKSt3__16vectorINS_4pairIffEENS_9allocatorIS2_EEE5beginB7v160006Ev, symObjAddr: 0x2C70, symBinAddr: 0x100004B00, symSize: 0x30 }
  - { offsetInCU: 0x1D986, offset: 0x1D986, size: 0x8, addend: 0x0, symName: __ZNKSt3__16vectorINS_4pairIffEENS_9allocatorIS2_EEE3endB7v160006Ev, symObjAddr: 0x2CA0, symBinAddr: 0x100004B30, symSize: 0x30 }
  - { offsetInCU: 0x1D9B8, offset: 0x1D9B8, size: 0x8, addend: 0x0, symName: __ZZNK8QPEngine20_printCoordinateListERKNSt3__16vectorINS0_4pairIffEENS0_9allocatorIS3_EEEEENKUlRKT_E_clIS3_EEDaSB_, symObjAddr: 0x2D04, symBinAddr: 0x100004B94, symSize: 0x64 }
  - { offsetInCU: 0x1D9FA, offset: 0x1D9FA, size: 0x8, addend: 0x0, symName: __ZNKSt3__111__wrap_iterIPKNS_4pairIffEEEdeB7v160006Ev, symObjAddr: 0x2D68, symBinAddr: 0x100004BF8, symSize: 0x18 }
  - { offsetInCU: 0x1DA20, offset: 0x1DA20, size: 0x8, addend: 0x0, symName: __ZNSt3__111__wrap_iterIPKNS_4pairIffEEEppB7v160006Ev, symObjAddr: 0x2D80, symBinAddr: 0x100004C10, symSize: 0x20 }
  - { offsetInCU: 0x1DA46, offset: 0x1DA46, size: 0x8, addend: 0x0, symName: __ZNKSt3__111__wrap_iterIPKNS_4pairIffEEE4baseB7v160006Ev, symObjAddr: 0x2DE8, symBinAddr: 0x100004C78, symSize: 0x18 }
  - { offsetInCU: 0x1DA6C, offset: 0x1DA6C, size: 0x8, addend: 0x0, symName: __ZNKSt3__16vectorINS_4pairIffEENS_9allocatorIS2_EEE11__make_iterB7v160006EPKS2_, symObjAddr: 0x2E00, symBinAddr: 0x100004C90, symSize: 0x34 }
  - { offsetInCU: 0x1DAA1, offset: 0x1DAA1, size: 0x8, addend: 0x0, symName: __ZNSt3__111__wrap_iterIPKNS_4pairIffEEEC1B7v160006EPKvS4_, symObjAddr: 0x2E34, symBinAddr: 0x100004CC4, symSize: 0x3C }
  - { offsetInCU: 0x1DAE7, offset: 0x1DAE7, size: 0x8, addend: 0x0, symName: __ZNSt3__111__wrap_iterIPKNS_4pairIffEEEC2B7v160006EPKvS4_, symObjAddr: 0x2E70, symBinAddr: 0x100004D00, symSize: 0x24 }
  - { offsetInCU: 0x1DB2D, offset: 0x1DB2D, size: 0x8, addend: 0x0, symName: __ZNKSt3__16vectorINS0_IfNS_9allocatorIfEEEENS1_IS3_EEE5beginB7v160006Ev, symObjAddr: 0x2EF0, symBinAddr: 0x100004D80, symSize: 0x30 }
  - { offsetInCU: 0x1DB55, offset: 0x1DB55, size: 0x8, addend: 0x0, symName: __ZNKSt3__16vectorINS0_IfNS_9allocatorIfEEEENS1_IS3_EEE3endB7v160006Ev, symObjAddr: 0x2F20, symBinAddr: 0x100004DB0, symSize: 0x30 }
  - { offsetInCU: 0x1DB87, offset: 0x1DB87, size: 0x8, addend: 0x0, symName: __ZZNK8QPEngine12_printMatrixERKNSt3__16vectorINS1_IfNS0_9allocatorIfEEEENS2_IS4_EEEEENKUlRKT_E_clIS4_EEDaSB_, symObjAddr: 0x2F84, symBinAddr: 0x100004E14, symSize: 0x6C }
  - { offsetInCU: 0x1DBEE, offset: 0x1DBEE, size: 0x8, addend: 0x0, symName: __ZNKSt3__111__wrap_iterIPKNS_6vectorIfNS_9allocatorIfEEEEEdeB7v160006Ev, symObjAddr: 0x2FF0, symBinAddr: 0x100004E80, symSize: 0x18 }
  - { offsetInCU: 0x1DC14, offset: 0x1DC14, size: 0x8, addend: 0x0, symName: __ZNSt3__111__wrap_iterIPKNS_6vectorIfNS_9allocatorIfEEEEEppB7v160006Ev, symObjAddr: 0x3008, symBinAddr: 0x100004E98, symSize: 0x20 }
  - { offsetInCU: 0x1DC3A, offset: 0x1DC3A, size: 0x8, addend: 0x0, symName: __ZNKSt3__111__wrap_iterIPKNS_6vectorIfNS_9allocatorIfEEEEE4baseB7v160006Ev, symObjAddr: 0x3070, symBinAddr: 0x100004F00, symSize: 0x18 }
  - { offsetInCU: 0x1DC6A, offset: 0x1DC6A, size: 0x8, addend: 0x0, symName: __ZZZNK8QPEngine12_printMatrixERKNSt3__16vectorINS1_IfNS0_9allocatorIfEEEENS2_IS4_EEEEENKUlRKT_E_clIS4_EEDaSB_ENKUlS9_E_clIfEESE_S9_, symObjAddr: 0x3118, symBinAddr: 0x100004FA8, symSize: 0x3C }
  - { offsetInCU: 0x1DCAC, offset: 0x1DCAC, size: 0x8, addend: 0x0, symName: __ZNKSt3__111__wrap_iterIPKfEdeB7v160006Ev, symObjAddr: 0x3154, symBinAddr: 0x100004FE4, symSize: 0x18 }
  - { offsetInCU: 0x1DCD2, offset: 0x1DCD2, size: 0x8, addend: 0x0, symName: __ZNSt3__111__wrap_iterIPKfEppB7v160006Ev, symObjAddr: 0x316C, symBinAddr: 0x100004FFC, symSize: 0x20 }
  - { offsetInCU: 0x1DCF8, offset: 0x1DCF8, size: 0x8, addend: 0x0, symName: __ZNKSt3__111__wrap_iterIPKfE4baseB7v160006Ev, symObjAddr: 0x31D4, symBinAddr: 0x100005064, symSize: 0x18 }
  - { offsetInCU: 0x1DD1E, offset: 0x1DD1E, size: 0x8, addend: 0x0, symName: __ZNKSt3__16vectorINS0_IfNS_9allocatorIfEEEENS1_IS3_EEE11__make_iterB7v160006EPKS3_, symObjAddr: 0x31EC, symBinAddr: 0x10000507C, symSize: 0x34 }
  - { offsetInCU: 0x1DD53, offset: 0x1DD53, size: 0x8, addend: 0x0, symName: __ZNSt3__111__wrap_iterIPKNS_6vectorIfNS_9allocatorIfEEEEEC1B7v160006EPKvS6_, symObjAddr: 0x3220, symBinAddr: 0x1000050B0, symSize: 0x3C }
  - { offsetInCU: 0x1DD99, offset: 0x1DD99, size: 0x8, addend: 0x0, symName: __ZNSt3__111__wrap_iterIPKNS_6vectorIfNS_9allocatorIfEEEEEC2B7v160006EPKvS6_, symObjAddr: 0x325C, symBinAddr: 0x1000050EC, symSize: 0x24 }
  - { offsetInCU: 0x1DDDF, offset: 0x1DDDF, size: 0x8, addend: 0x0, symName: __ZNKSt3__16vectorImNS_9allocatorImEEE5beginB7v160006Ev, symObjAddr: 0x3324, symBinAddr: 0x1000051B4, symSize: 0x30 }
  - { offsetInCU: 0x1DE07, offset: 0x1DE07, size: 0x8, addend: 0x0, symName: __ZNKSt3__16vectorImNS_9allocatorImEEE3endB7v160006Ev, symObjAddr: 0x3354, symBinAddr: 0x1000051E4, symSize: 0x30 }
  - { offsetInCU: 0x1DE2F, offset: 0x1DE2F, size: 0x8, addend: 0x0, symName: __ZNSt3__110__get_pairILm0EE3getB7v160006INS_6vectorImNS_9allocatorImEEEES6_EERKT_RKNS_4pairIS7_T0_EE, symObjAddr: 0x33E0, symBinAddr: 0x100005270, symSize: 0x14 }
  - { offsetInCU: 0x1DE65, offset: 0x1DE65, size: 0x8, addend: 0x0, symName: __ZNSt3__110__get_pairILm1EE3getB7v160006INS_6vectorImNS_9allocatorImEEEES6_EERKT0_RKNS_4pairIT_S7_EE, symObjAddr: 0x33F4, symBinAddr: 0x100005284, symSize: 0x18 }
  - { offsetInCU: 0x1DEA5, offset: 0x1DEA5, size: 0x8, addend: 0x0, symName: __ZZNK8QPEngine13_printNetListERKNSt3__16vectorINS0_4pairINS1_ImNS0_9allocatorImEEEES5_EENS3_IS6_EEEEENKUlT_E_clImEEDaSB_, symObjAddr: 0x3440, symBinAddr: 0x1000052D0, symSize: 0x3C }
  - { offsetInCU: 0x1DEE7, offset: 0x1DEE7, size: 0x8, addend: 0x0, symName: __ZNKSt3__111__wrap_iterIPKmEdeB7v160006Ev, symObjAddr: 0x347C, symBinAddr: 0x10000530C, symSize: 0x18 }
  - { offsetInCU: 0x1DF0D, offset: 0x1DF0D, size: 0x8, addend: 0x0, symName: __ZNSt3__111__wrap_iterIPKmEppB7v160006Ev, symObjAddr: 0x3494, symBinAddr: 0x100005324, symSize: 0x20 }
  - { offsetInCU: 0x1DF33, offset: 0x1DF33, size: 0x8, addend: 0x0, symName: __ZNKSt3__111__wrap_iterIPKmE4baseB7v160006Ev, symObjAddr: 0x34FC, symBinAddr: 0x10000538C, symSize: 0x18 }
  - { offsetInCU: 0x1DF59, offset: 0x1DF59, size: 0x8, addend: 0x0, symName: __ZNKSt3__16vectorImNS_9allocatorImEEE11__make_iterB7v160006EPKm, symObjAddr: 0x3514, symBinAddr: 0x1000053A4, symSize: 0x34 }
  - { offsetInCU: 0x1DF8E, offset: 0x1DF8E, size: 0x8, addend: 0x0, symName: __ZNSt3__111__wrap_iterIPKmEC1B7v160006EPKvS2_, symObjAddr: 0x3548, symBinAddr: 0x1000053D8, symSize: 0x3C }
  - { offsetInCU: 0x1DFD4, offset: 0x1DFD4, size: 0x8, addend: 0x0, symName: __ZNSt3__111__wrap_iterIPKmEC2B7v160006EPKvS2_, symObjAddr: 0x3584, symBinAddr: 0x100005414, symSize: 0x24 }
  - { offsetInCU: 0x1E024, offset: 0x1E024, size: 0x8, addend: 0x0, symName: __ZZNK8QPEngine13_printNetListERKNSt3__16vectorINS0_4pairINS1_ImNS0_9allocatorImEEEES5_EENS3_IS6_EEEEENKUlT_E0_clImEEDaSB_, symObjAddr: 0x35A8, symBinAddr: 0x100005438, symSize: 0x3C }
  - { offsetInCU: 0x1E066, offset: 0x1E066, size: 0x8, addend: 0x0, symName: __ZNSt3__112basic_stringIcNS_11char_traitsIcEENS_9allocatorIcEEEC2B7v160006Ev, symObjAddr: 0x35E4, symBinAddr: 0x100005474, symSize: 0x54 }
  - { offsetInCU: 0x1E090, offset: 0x1E090, size: 0x8, addend: 0x0, symName: __ZNSt3__117__compressed_pairINS_12basic_stringIcNS_11char_traitsIcEENS_9allocatorIcEEE5__repES5_EC1B7v160006INS_18__default_init_tagESA_EEOT_OT0_, symObjAddr: 0x3638, symBinAddr: 0x1000054C8, symSize: 0x3C }
  - { offsetInCU: 0x1E0E8, offset: 0x1E0E8, size: 0x8, addend: 0x0, symName: __ZNSt3__112basic_stringIcNS_11char_traitsIcEENS_9allocatorIcEEE14__default_initB7v160006Ev, symObjAddr: 0x3684, symBinAddr: 0x100005514, symSize: 0x40 }
  - { offsetInCU: 0x1E10E, offset: 0x1E10E, size: 0x8, addend: 0x0, symName: __ZNSt3__117__compressed_pairINS_12basic_stringIcNS_11char_traitsIcEENS_9allocatorIcEEE5__repES5_EC2B7v160006INS_18__default_init_tagESA_EEOT_OT0_, symObjAddr: 0x36C4, symBinAddr: 0x100005554, symSize: 0x3C }
  - { offsetInCU: 0x1E166, offset: 0x1E166, size: 0x8, addend: 0x0, symName: __ZNSt3__122__compressed_pair_elemINS_12basic_stringIcNS_11char_traitsIcEENS_9allocatorIcEEE5__repELi0ELb0EEC2B7v160006ENS_18__default_init_tagE, symObjAddr: 0x3700, symBinAddr: 0x100005590, symSize: 0x14 }
  - { offsetInCU: 0x1E19B, offset: 0x1E19B, size: 0x8, addend: 0x0, symName: __ZNSt3__122__compressed_pair_elemINS_9allocatorIcEELi1ELb1EEC2B7v160006ENS_18__default_init_tagE, symObjAddr: 0x3714, symBinAddr: 0x1000055A4, symSize: 0x2C }
  - { offsetInCU: 0x1E1D0, offset: 0x1E1D0, size: 0x8, addend: 0x0, symName: __ZNSt3__19allocatorIcEC2B7v160006Ev, symObjAddr: 0x3740, symBinAddr: 0x1000055D0, symSize: 0x2C }
  - { offsetInCU: 0x1E1FA, offset: 0x1E1FA, size: 0x8, addend: 0x0, symName: __ZNSt3__116__non_trivial_ifILb1ENS_9allocatorIcEEEC2B7v160006Ev, symObjAddr: 0x376C, symBinAddr: 0x1000055FC, symSize: 0x14 }
  - { offsetInCU: 0x1E224, offset: 0x1E224, size: 0x8, addend: 0x0, symName: __ZNSt3__117__compressed_pairINS_12basic_stringIcNS_11char_traitsIcEENS_9allocatorIcEEE5__repES5_E5firstB7v160006Ev, symObjAddr: 0x3780, symBinAddr: 0x100005610, symSize: 0x24 }
  - { offsetInCU: 0x1E24A, offset: 0x1E24A, size: 0x8, addend: 0x0, symName: __ZNSt3__122__compressed_pair_elemINS_12basic_stringIcNS_11char_traitsIcEENS_9allocatorIcEEE5__repELi0ELb0EE5__getB7v160006Ev, symObjAddr: 0x37A4, symBinAddr: 0x100005634, symSize: 0x14 }
  - { offsetInCU: 0x1E270, offset: 0x1E270, size: 0x8, addend: 0x0, symName: __ZNSt3__16vectorINS_4pairIffEENS_9allocatorIS2_EEED2B7v160006Ev, symObjAddr: 0x37B8, symBinAddr: 0x100005648, symSize: 0x44 }
  - { offsetInCU: 0x1E29A, offset: 0x1E29A, size: 0x8, addend: 0x0, symName: __ZNSt3__16vectorINS_4pairIffEENS_9allocatorIS2_EEE16__destroy_vectorC1ERS5_, symObjAddr: 0x37FC, symBinAddr: 0x10000568C, symSize: 0x34 }
  - { offsetInCU: 0x1E2D3, offset: 0x1E2D3, size: 0x8, addend: 0x0, symName: __ZNSt3__16vectorINS_4pairIffEENS_9allocatorIS2_EEE16__destroy_vectorclB7v160006Ev, symObjAddr: 0x3830, symBinAddr: 0x1000056C0, symSize: 0x9C }
  - { offsetInCU: 0x1E2F9, offset: 0x1E2F9, size: 0x8, addend: 0x0, symName: __ZNSt3__16vectorINS_4pairIffEENS_9allocatorIS2_EEE16__destroy_vectorC2ERS5_, symObjAddr: 0x38CC, symBinAddr: 0x10000575C, symSize: 0x20 }
  - { offsetInCU: 0x1E332, offset: 0x1E332, size: 0x8, addend: 0x0, symName: __ZNKSt3__16vectorINS_4pairIffEENS_9allocatorIS2_EEE17__annotate_deleteB7v160006Ev, symObjAddr: 0x38EC, symBinAddr: 0x10000577C, symSize: 0xB8 }
  - { offsetInCU: 0x1E358, offset: 0x1E358, size: 0x8, addend: 0x0, symName: __ZNSt3__16vectorINS_4pairIffEENS_9allocatorIS2_EEE7__clearB7v160006Ev, symObjAddr: 0x39B4, symBinAddr: 0x100005844, symSize: 0x28 }
  - { offsetInCU: 0x1E37E, offset: 0x1E37E, size: 0x8, addend: 0x0, symName: __ZNSt3__116allocator_traitsINS_9allocatorINS_4pairIffEEEEE10deallocateB7v160006ERS4_PS3_m, symObjAddr: 0x39DC, symBinAddr: 0x10000586C, symSize: 0x34 }
  - { offsetInCU: 0x1E3C0, offset: 0x1E3C0, size: 0x8, addend: 0x0, symName: __ZNSt3__16vectorINS_4pairIffEENS_9allocatorIS2_EEE7__allocB7v160006Ev, symObjAddr: 0x3A10, symBinAddr: 0x1000058A0, symSize: 0x28 }
  - { offsetInCU: 0x1E3E6, offset: 0x1E3E6, size: 0x8, addend: 0x0, symName: __ZNKSt3__16vectorINS_4pairIffEENS_9allocatorIS2_EEE8capacityB7v160006Ev, symObjAddr: 0x3A38, symBinAddr: 0x1000058C8, symSize: 0x40 }
  - { offsetInCU: 0x1E40C, offset: 0x1E40C, size: 0x8, addend: 0x0, symName: __ZNKSt3__16vectorINS_4pairIffEENS_9allocatorIS2_EEE31__annotate_contiguous_containerB7v160006EPKvS7_S7_S7_, symObjAddr: 0x3A78, symBinAddr: 0x100005908, symSize: 0x20 }
  - { offsetInCU: 0x1E45E, offset: 0x1E45E, size: 0x8, addend: 0x0, symName: __ZNKSt3__16vectorINS_4pairIffEENS_9allocatorIS2_EEE4dataB7v160006Ev, symObjAddr: 0x3A98, symBinAddr: 0x100005928, symSize: 0x28 }
  - { offsetInCU: 0x1E484, offset: 0x1E484, size: 0x8, addend: 0x0, symName: __ZNSt3__16vectorINS_4pairIffEENS_9allocatorIS2_EEE22__base_destruct_at_endB7v160006EPS2_, symObjAddr: 0x3AD4, symBinAddr: 0x100005964, symSize: 0x8C }
  - { offsetInCU: 0x1E4C8, offset: 0x1E4C8, size: 0x8, addend: 0x0, symName: __ZNSt3__116allocator_traitsINS_9allocatorINS_4pairIffEEEEE7destroyB7v160006IS3_vEEvRS4_PT_, symObjAddr: 0x3B60, symBinAddr: 0x1000059F0, symSize: 0x2C }
  - { offsetInCU: 0x1E505, offset: 0x1E505, size: 0x8, addend: 0x0, symName: __ZNSt3__19allocatorINS_4pairIffEEE7destroyB7v160006EPS2_, symObjAddr: 0x3B8C, symBinAddr: 0x100005A1C, symSize: 0x14 }
  - { offsetInCU: 0x1E539, offset: 0x1E539, size: 0x8, addend: 0x0, symName: __ZNSt3__19allocatorINS_4pairIffEEE10deallocateB7v160006EPS2_m, symObjAddr: 0x3BA0, symBinAddr: 0x100005A30, symSize: 0x40 }
  - { offsetInCU: 0x1E57B, offset: 0x1E57B, size: 0x8, addend: 0x0, symName: __ZNSt3__117__compressed_pairIPNS_4pairIffEENS_9allocatorIS2_EEE6secondB7v160006Ev, symObjAddr: 0x3D08, symBinAddr: 0x100005B98, symSize: 0x24 }
  - { offsetInCU: 0x1E5A1, offset: 0x1E5A1, size: 0x8, addend: 0x0, symName: __ZNSt3__122__compressed_pair_elemINS_9allocatorINS_4pairIffEEEELi1ELb1EE5__getB7v160006Ev, symObjAddr: 0x3D2C, symBinAddr: 0x100005BBC, symSize: 0x14 }
  - { offsetInCU: 0x1E5C7, offset: 0x1E5C7, size: 0x8, addend: 0x0, symName: __ZNKSt3__16vectorINS_4pairIffEENS_9allocatorIS2_EEE9__end_capB7v160006Ev, symObjAddr: 0x3D40, symBinAddr: 0x100005BD0, symSize: 0x28 }
  - { offsetInCU: 0x1E5ED, offset: 0x1E5ED, size: 0x8, addend: 0x0, symName: __ZNKSt3__117__compressed_pairIPNS_4pairIffEENS_9allocatorIS2_EEE5firstB7v160006Ev, symObjAddr: 0x3D68, symBinAddr: 0x100005BF8, symSize: 0x24 }
  - { offsetInCU: 0x1E613, offset: 0x1E613, size: 0x8, addend: 0x0, symName: __ZNKSt3__122__compressed_pair_elemIPNS_4pairIffEELi0ELb0EE5__getB7v160006Ev, symObjAddr: 0x3D8C, symBinAddr: 0x100005C1C, symSize: 0x14 }
  - { offsetInCU: 0x1E639, offset: 0x1E639, size: 0x8, addend: 0x0, symName: __ZNSt3__111char_traitsIcE6lengthEPKc, symObjAddr: 0x3F8C, symBinAddr: 0x100005E1C, symSize: 0x34 }
  - { offsetInCU: 0x1E67A, offset: 0x1E67A, size: 0x8, addend: 0x0, symName: __ZNKSt3__113basic_ostreamIcNS_11char_traitsIcEEE6sentrycvbB7v160006Ev, symObjAddr: 0x3FC0, symBinAddr: 0x100005E50, symSize: 0x1C }
  - { offsetInCU: 0x1E6A0, offset: 0x1E6A0, size: 0x8, addend: 0x0, symName: __ZNSt3__119ostreambuf_iteratorIcNS_11char_traitsIcEEEC1B7v160006ERNS_13basic_ostreamIcS2_EE, symObjAddr: 0x421C, symBinAddr: 0x1000060AC, symSize: 0x34 }
  - { offsetInCU: 0x1E6D8, offset: 0x1E6D8, size: 0x8, addend: 0x0, symName: __ZNKSt3__18ios_base5flagsB7v160006Ev, symObjAddr: 0x4250, symBinAddr: 0x1000060E0, symSize: 0x18 }
  - { offsetInCU: 0x1E700, offset: 0x1E700, size: 0x8, addend: 0x0, symName: __ZNKSt3__19basic_iosIcNS_11char_traitsIcEEE4fillB7v160006Ev, symObjAddr: 0x4268, symBinAddr: 0x1000060F8, symSize: 0x64 }
  - { offsetInCU: 0x1E728, offset: 0x1E728, size: 0x8, addend: 0x0, symName: __ZNKSt3__119ostreambuf_iteratorIcNS_11char_traitsIcEEE6failedB7v160006Ev, symObjAddr: 0x42CC, symBinAddr: 0x10000615C, symSize: 0x24 }
  - { offsetInCU: 0x1E74E, offset: 0x1E74E, size: 0x8, addend: 0x0, symName: __ZNSt3__19basic_iosIcNS_11char_traitsIcEEE8setstateB7v160006Ej, symObjAddr: 0x42F0, symBinAddr: 0x100006180, symSize: 0x2C }
  - { offsetInCU: 0x1E783, offset: 0x1E783, size: 0x8, addend: 0x0, symName: __ZNKSt3__18ios_base5widthB7v160006Ev, symObjAddr: 0x431C, symBinAddr: 0x1000061AC, symSize: 0x18 }
  - { offsetInCU: 0x1E7AB, offset: 0x1E7AB, size: 0x8, addend: 0x0, symName: __ZNSt3__115basic_streambufIcNS_11char_traitsIcEEE5sputnB7v160006EPKcl, symObjAddr: 0x4334, symBinAddr: 0x1000061C4, symSize: 0x3C }
  - { offsetInCU: 0x1E7ED, offset: 0x1E7ED, size: 0x8, addend: 0x0, symName: __ZNSt3__112basic_stringIcNS_11char_traitsIcEENS_9allocatorIcEEEC1B7v160006Emc, symObjAddr: 0x4370, symBinAddr: 0x100006200, symSize: 0x3C }
  - { offsetInCU: 0x1E835, offset: 0x1E835, size: 0x8, addend: 0x0, symName: __ZNSt3__112basic_stringIcNS_11char_traitsIcEENS_9allocatorIcEEE4dataB7v160006Ev, symObjAddr: 0x43AC, symBinAddr: 0x10000623C, symSize: 0x28 }
  - { offsetInCU: 0x1E85B, offset: 0x1E85B, size: 0x8, addend: 0x0, symName: __ZNSt3__18ios_base5widthB7v160006El, symObjAddr: 0x43D4, symBinAddr: 0x100006264, symSize: 0x2C }
  - { offsetInCU: 0x1E8A1, offset: 0x1E8A1, size: 0x8, addend: 0x0, symName: __ZNSt3__112basic_stringIcNS_11char_traitsIcEENS_9allocatorIcEEEC2B7v160006Emc, symObjAddr: 0x4400, symBinAddr: 0x100006290, symSize: 0x54 }
  - { offsetInCU: 0x1E8E9, offset: 0x1E8E9, size: 0x8, addend: 0x0, symName: __ZNSt3__112basic_stringIcNS_11char_traitsIcEENS_9allocatorIcEEE13__get_pointerB7v160006Ev, symObjAddr: 0x4468, symBinAddr: 0x1000062F8, symSize: 0x54 }
  - { offsetInCU: 0x1E90F, offset: 0x1E90F, size: 0x8, addend: 0x0, symName: __ZNKSt3__112basic_stringIcNS_11char_traitsIcEENS_9allocatorIcEEE9__is_longB7v160006Ev, symObjAddr: 0x44BC, symBinAddr: 0x10000634C, symSize: 0x38 }
  - { offsetInCU: 0x1E935, offset: 0x1E935, size: 0x8, addend: 0x0, symName: __ZNSt3__112basic_stringIcNS_11char_traitsIcEENS_9allocatorIcEEE18__get_long_pointerB7v160006Ev, symObjAddr: 0x44F4, symBinAddr: 0x100006384, symSize: 0x28 }
  - { offsetInCU: 0x1E95B, offset: 0x1E95B, size: 0x8, addend: 0x0, symName: __ZNSt3__112basic_stringIcNS_11char_traitsIcEENS_9allocatorIcEEE19__get_short_pointerB7v160006Ev, symObjAddr: 0x451C, symBinAddr: 0x1000063AC, symSize: 0x28 }
  - { offsetInCU: 0x1E981, offset: 0x1E981, size: 0x8, addend: 0x0, symName: __ZNKSt3__117__compressed_pairINS_12basic_stringIcNS_11char_traitsIcEENS_9allocatorIcEEE5__repES5_E5firstB7v160006Ev, symObjAddr: 0x4544, symBinAddr: 0x1000063D4, symSize: 0x24 }
  - { offsetInCU: 0x1E9A7, offset: 0x1E9A7, size: 0x8, addend: 0x0, symName: __ZNKSt3__122__compressed_pair_elemINS_12basic_stringIcNS_11char_traitsIcEENS_9allocatorIcEEE5__repELi0ELb0EE5__getB7v160006Ev, symObjAddr: 0x4568, symBinAddr: 0x1000063F8, symSize: 0x14 }
  - { offsetInCU: 0x1E9CD, offset: 0x1E9CD, size: 0x8, addend: 0x0, symName: __ZNSt3__114pointer_traitsIPcE10pointer_toB7v160006ERc, symObjAddr: 0x457C, symBinAddr: 0x10000640C, symSize: 0x14 }
  - { offsetInCU: 0x1E9F0, offset: 0x1E9F0, size: 0x8, addend: 0x0, symName: __ZNSt3__119ostreambuf_iteratorIcNS_11char_traitsIcEEEC2B7v160006ERNS_13basic_ostreamIcS2_EE, symObjAddr: 0x4590, symBinAddr: 0x100006420, symSize: 0x54 }
  - { offsetInCU: 0x1EA28, offset: 0x1EA28, size: 0x8, addend: 0x0, symName: __ZNKSt3__19basic_iosIcNS_11char_traitsIcEEE5rdbufB7v160006Ev, symObjAddr: 0x45E4, symBinAddr: 0x100006474, symSize: 0x24 }
  - { offsetInCU: 0x1EA50, offset: 0x1EA50, size: 0x8, addend: 0x0, symName: __ZNKSt3__18ios_base5rdbufB7v160006Ev, symObjAddr: 0x4608, symBinAddr: 0x100006498, symSize: 0x18 }
  - { offsetInCU: 0x1EA76, offset: 0x1EA76, size: 0x8, addend: 0x0, symName: __ZNSt3__111char_traitsIcE11eq_int_typeEii, symObjAddr: 0x4620, symBinAddr: 0x1000064B0, symSize: 0x28 }
  - { offsetInCU: 0x1EAA7, offset: 0x1EAA7, size: 0x8, addend: 0x0, symName: __ZNSt3__111char_traitsIcE3eofEv, symObjAddr: 0x4648, symBinAddr: 0x1000064D8, symSize: 0x8 }
  - { offsetInCU: 0x1EABB, offset: 0x1EABB, size: 0x8, addend: 0x0, symName: __ZNKSt3__19basic_iosIcNS_11char_traitsIcEEE5widenB7v160006Ec, symObjAddr: 0x4650, symBinAddr: 0x1000064E0, symSize: 0x84 }
  - { offsetInCU: 0x1EB24, offset: 0x1EB24, size: 0x8, addend: 0x0, symName: __ZNKSt3__15ctypeIcE5widenB7v160006Ec, symObjAddr: 0x4700, symBinAddr: 0x100006590, symSize: 0x38 }
  - { offsetInCU: 0x1EB59, offset: 0x1EB59, size: 0x8, addend: 0x0, symName: __ZNSt3__18ios_base8setstateB7v160006Ej, symObjAddr: 0x4738, symBinAddr: 0x1000065C8, symSize: 0x34 }
  - { offsetInCU: 0x1EB90, offset: 0x1EB90, size: 0x8, addend: 0x0, symName: __ZNSt3__19basic_iosIcNS_11char_traitsIcEEEC2B7v160006Ev, symObjAddr: 0x4790, symBinAddr: 0x100006620, symSize: 0x44 }
  - { offsetInCU: 0x1EBBA, offset: 0x1EBBA, size: 0x8, addend: 0x0, symName: __ZNSt3__113basic_istreamIcNS_11char_traitsIcEEEC2B7v160006EPNS_15basic_streambufIcS2_EE, symObjAddr: 0x47D4, symBinAddr: 0x100006664, symSize: 0x64 }
  - { offsetInCU: 0x1EBFF, offset: 0x1EBFF, size: 0x8, addend: 0x0, symName: __ZNSt3__18ios_baseC2B7v160006Ev, symObjAddr: 0x4838, symBinAddr: 0x1000066C8, symSize: 0x24 }
  - { offsetInCU: 0x1EC29, offset: 0x1EC29, size: 0x8, addend: 0x0, symName: __ZNSt3__19basic_iosIcNS_11char_traitsIcEEE4initB7v160006EPNS_15basic_streambufIcS2_EE, symObjAddr: 0x485C, symBinAddr: 0x1000066EC, symSize: 0x44 }
  - { offsetInCU: 0x1EC60, offset: 0x1EC60, size: 0x8, addend: 0x0, symName: __ZNSt3__113basic_ostreamIcNS_11char_traitsIcEEEC2B7v160006EPNS_15basic_streambufIcS2_EE, symObjAddr: 0x48A0, symBinAddr: 0x100006730, symSize: 0x60 }
  - { offsetInCU: 0x1ECA5, offset: 0x1ECA5, size: 0x8, addend: 0x0, symName: __ZNKSt3__113basic_filebufIcNS_11char_traitsIcEEE7is_openEv, symObjAddr: 0x4900, symBinAddr: 0x100006790, symSize: 0x24 }
  - { offsetInCU: 0x1ECCD, offset: 0x1ECCD, size: 0x8, addend: 0x0, symName: __ZNSt3__16vectorINS_4pairINS0_ImNS_9allocatorImEEEES4_EENS2_IS5_EEED2B7v160006Ev, symObjAddr: 0x4924, symBinAddr: 0x1000067B4, symSize: 0x44 }
  - { offsetInCU: 0x1ECF7, offset: 0x1ECF7, size: 0x8, addend: 0x0, symName: __ZNSt3__16vectorINS_4pairINS0_ImNS_9allocatorImEEEES4_EENS2_IS5_EEE16__destroy_vectorC1ERS7_, symObjAddr: 0x4968, symBinAddr: 0x1000067F8, symSize: 0x34 }
  - { offsetInCU: 0x1ED30, offset: 0x1ED30, size: 0x8, addend: 0x0, symName: __ZNSt3__16vectorINS_4pairINS0_ImNS_9allocatorImEEEES4_EENS2_IS5_EEE16__destroy_vectorclB7v160006Ev, symObjAddr: 0x499C, symBinAddr: 0x10000682C, symSize: 0x9C }
  - { offsetInCU: 0x1ED56, offset: 0x1ED56, size: 0x8, addend: 0x0, symName: __ZNSt3__16vectorINS_4pairINS0_ImNS_9allocatorImEEEES4_EENS2_IS5_EEE16__destroy_vectorC2ERS7_, symObjAddr: 0x4A38, symBinAddr: 0x1000068C8, symSize: 0x20 }
  - { offsetInCU: 0x1ED8F, offset: 0x1ED8F, size: 0x8, addend: 0x0, symName: __ZNKSt3__16vectorINS_4pairINS0_ImNS_9allocatorImEEEES4_EENS2_IS5_EEE17__annotate_deleteB7v160006Ev, symObjAddr: 0x4A58, symBinAddr: 0x1000068E8, symSize: 0xD4 }
  - { offsetInCU: 0x1EDB5, offset: 0x1EDB5, size: 0x8, addend: 0x0, symName: __ZNSt3__16vectorINS_4pairINS0_ImNS_9allocatorImEEEES4_EENS2_IS5_EEE7__clearB7v160006Ev, symObjAddr: 0x4B3C, symBinAddr: 0x1000069CC, symSize: 0x28 }
  - { offsetInCU: 0x1EDDB, offset: 0x1EDDB, size: 0x8, addend: 0x0, symName: __ZNSt3__116allocator_traitsINS_9allocatorINS_4pairINS_6vectorImNS1_ImEEEES5_EEEEE10deallocateB7v160006ERS7_PS6_m, symObjAddr: 0x4B64, symBinAddr: 0x1000069F4, symSize: 0x34 }
  - { offsetInCU: 0x1EE1D, offset: 0x1EE1D, size: 0x8, addend: 0x0, symName: __ZNSt3__16vectorINS_4pairINS0_ImNS_9allocatorImEEEES4_EENS2_IS5_EEE7__allocB7v160006Ev, symObjAddr: 0x4B98, symBinAddr: 0x100006A28, symSize: 0x28 }
  - { offsetInCU: 0x1EE43, offset: 0x1EE43, size: 0x8, addend: 0x0, symName: __ZNKSt3__16vectorINS_4pairINS0_ImNS_9allocatorImEEEES4_EENS2_IS5_EEE8capacityB7v160006Ev, symObjAddr: 0x4BC0, symBinAddr: 0x100006A50, symSize: 0x40 }
  - { offsetInCU: 0x1EE69, offset: 0x1EE69, size: 0x8, addend: 0x0, symName: __ZNKSt3__16vectorINS_4pairINS0_ImNS_9allocatorImEEEES4_EENS2_IS5_EEE31__annotate_contiguous_containerB7v160006EPKvS9_S9_S9_, symObjAddr: 0x4C00, symBinAddr: 0x100006A90, symSize: 0x20 }
  - { offsetInCU: 0x1EEBB, offset: 0x1EEBB, size: 0x8, addend: 0x0, symName: __ZNKSt3__16vectorINS_4pairINS0_ImNS_9allocatorImEEEES4_EENS2_IS5_EEE4dataB7v160006Ev, symObjAddr: 0x4C20, symBinAddr: 0x100006AB0, symSize: 0x28 }
  - { offsetInCU: 0x1EEE1, offset: 0x1EEE1, size: 0x8, addend: 0x0, symName: __ZNSt3__16vectorINS_4pairINS0_ImNS_9allocatorImEEEES4_EENS2_IS5_EEE22__base_destruct_at_endB7v160006EPS5_, symObjAddr: 0x4C5C, symBinAddr: 0x100006AEC, symSize: 0x8C }
  - { offsetInCU: 0x1EF25, offset: 0x1EF25, size: 0x8, addend: 0x0, symName: __ZNSt3__116allocator_traitsINS_9allocatorINS_4pairINS_6vectorImNS1_ImEEEES5_EEEEE7destroyB7v160006IS6_vEEvRS7_PT_, symObjAddr: 0x4CE8, symBinAddr: 0x100006B78, symSize: 0x2C }
  - { offsetInCU: 0x1EF62, offset: 0x1EF62, size: 0x8, addend: 0x0, symName: __ZNSt3__19allocatorINS_4pairINS_6vectorImNS0_ImEEEES4_EEE7destroyB7v160006EPS5_, symObjAddr: 0x4D14, symBinAddr: 0x100006BA4, symSize: 0x28 }
  - { offsetInCU: 0x1EF96, offset: 0x1EF96, size: 0x8, addend: 0x0, symName: __ZNSt3__19allocatorINS_4pairINS_6vectorImNS0_ImEEEES4_EEE10deallocateB7v160006EPS5_m, symObjAddr: 0x4D3C, symBinAddr: 0x100006BCC, symSize: 0x44 }
  - { offsetInCU: 0x1EFD8, offset: 0x1EFD8, size: 0x8, addend: 0x0, symName: __ZNSt3__117__compressed_pairIPNS_4pairINS_6vectorImNS_9allocatorImEEEES5_EENS3_IS6_EEE6secondB7v160006Ev, symObjAddr: 0x4D80, symBinAddr: 0x100006C10, symSize: 0x24 }
  - { offsetInCU: 0x1EFFE, offset: 0x1EFFE, size: 0x8, addend: 0x0, symName: __ZNSt3__122__compressed_pair_elemINS_9allocatorINS_4pairINS_6vectorImNS1_ImEEEES5_EEEELi1ELb1EE5__getB7v160006Ev, symObjAddr: 0x4DA4, symBinAddr: 0x100006C34, symSize: 0x14 }
  - { offsetInCU: 0x1F024, offset: 0x1F024, size: 0x8, addend: 0x0, symName: __ZNKSt3__16vectorINS_4pairINS0_ImNS_9allocatorImEEEES4_EENS2_IS5_EEE9__end_capB7v160006Ev, symObjAddr: 0x4DB8, symBinAddr: 0x100006C48, symSize: 0x28 }
  - { offsetInCU: 0x1F04A, offset: 0x1F04A, size: 0x8, addend: 0x0, symName: __ZNKSt3__117__compressed_pairIPNS_4pairINS_6vectorImNS_9allocatorImEEEES5_EENS3_IS6_EEE5firstB7v160006Ev, symObjAddr: 0x4DE0, symBinAddr: 0x100006C70, symSize: 0x24 }
  - { offsetInCU: 0x1F070, offset: 0x1F070, size: 0x8, addend: 0x0, symName: __ZNKSt3__122__compressed_pair_elemIPNS_4pairINS_6vectorImNS_9allocatorImEEEES5_EELi0ELb0EE5__getB7v160006Ev, symObjAddr: 0x4E04, symBinAddr: 0x100006C94, symSize: 0x14 }
  - { offsetInCU: 0x1F096, offset: 0x1F096, size: 0x8, addend: 0x0, symName: __ZNSt3__16vectorINS0_IfNS_9allocatorIfEEEENS1_IS3_EEED2B7v160006Ev, symObjAddr: 0x4E18, symBinAddr: 0x100006CA8, symSize: 0x44 }
  - { offsetInCU: 0x1F0C0, offset: 0x1F0C0, size: 0x8, addend: 0x0, symName: __ZNSt3__16vectorINS0_IfNS_9allocatorIfEEEENS1_IS3_EEE16__destroy_vectorC1ERS5_, symObjAddr: 0x4E5C, symBinAddr: 0x100006CEC, symSize: 0x34 }
  - { offsetInCU: 0x1F0F9, offset: 0x1F0F9, size: 0x8, addend: 0x0, symName: __ZNSt3__16vectorINS0_IfNS_9allocatorIfEEEENS1_IS3_EEE16__destroy_vectorclB7v160006Ev, symObjAddr: 0x4E90, symBinAddr: 0x100006D20, symSize: 0x9C }
  - { offsetInCU: 0x1F11F, offset: 0x1F11F, size: 0x8, addend: 0x0, symName: __ZNSt3__16vectorINS0_IfNS_9allocatorIfEEEENS1_IS3_EEE16__destroy_vectorC2ERS5_, symObjAddr: 0x4F2C, symBinAddr: 0x100006DBC, symSize: 0x20 }
  - { offsetInCU: 0x1F158, offset: 0x1F158, size: 0x8, addend: 0x0, symName: __ZNKSt3__16vectorINS0_IfNS_9allocatorIfEEEENS1_IS3_EEE17__annotate_deleteB7v160006Ev, symObjAddr: 0x4F4C, symBinAddr: 0x100006DDC, symSize: 0xD4 }
  - { offsetInCU: 0x1F17E, offset: 0x1F17E, size: 0x8, addend: 0x0, symName: __ZNSt3__16vectorINS0_IfNS_9allocatorIfEEEENS1_IS3_EEE7__clearB7v160006Ev, symObjAddr: 0x5030, symBinAddr: 0x100006EC0, symSize: 0x28 }
  - { offsetInCU: 0x1F1A4, offset: 0x1F1A4, size: 0x8, addend: 0x0, symName: __ZNSt3__116allocator_traitsINS_9allocatorINS_6vectorIfNS1_IfEEEEEEE10deallocateB7v160006ERS5_PS4_m, symObjAddr: 0x5058, symBinAddr: 0x100006EE8, symSize: 0x34 }
  - { offsetInCU: 0x1F1E6, offset: 0x1F1E6, size: 0x8, addend: 0x0, symName: __ZNSt3__16vectorINS0_IfNS_9allocatorIfEEEENS1_IS3_EEE7__allocB7v160006Ev, symObjAddr: 0x508C, symBinAddr: 0x100006F1C, symSize: 0x28 }
  - { offsetInCU: 0x1F20C, offset: 0x1F20C, size: 0x8, addend: 0x0, symName: __ZNKSt3__16vectorINS0_IfNS_9allocatorIfEEEENS1_IS3_EEE8capacityB7v160006Ev, symObjAddr: 0x50B4, symBinAddr: 0x100006F44, symSize: 0x40 }
  - { offsetInCU: 0x1F232, offset: 0x1F232, size: 0x8, addend: 0x0, symName: __ZNKSt3__16vectorINS0_IfNS_9allocatorIfEEEENS1_IS3_EEE31__annotate_contiguous_containerB7v160006EPKvS7_S7_S7_, symObjAddr: 0x50F4, symBinAddr: 0x100006F84, symSize: 0x20 }
  - { offsetInCU: 0x1F284, offset: 0x1F284, size: 0x8, addend: 0x0, symName: __ZNKSt3__16vectorINS0_IfNS_9allocatorIfEEEENS1_IS3_EEE4dataB7v160006Ev, symObjAddr: 0x5114, symBinAddr: 0x100006FA4, symSize: 0x28 }
  - { offsetInCU: 0x1F2AA, offset: 0x1F2AA, size: 0x8, addend: 0x0, symName: __ZNSt3__16vectorINS0_IfNS_9allocatorIfEEEENS1_IS3_EEE22__base_destruct_at_endB7v160006EPS3_, symObjAddr: 0x5150, symBinAddr: 0x100006FE0, symSize: 0x8C }
  - { offsetInCU: 0x1F2EE, offset: 0x1F2EE, size: 0x8, addend: 0x0, symName: __ZNSt3__116allocator_traitsINS_9allocatorINS_6vectorIfNS1_IfEEEEEEE7destroyB7v160006IS4_vEEvRS5_PT_, symObjAddr: 0x51DC, symBinAddr: 0x10000706C, symSize: 0x2C }
  - { offsetInCU: 0x1F32B, offset: 0x1F32B, size: 0x8, addend: 0x0, symName: __ZNSt3__19allocatorINS_6vectorIfNS0_IfEEEEE7destroyB7v160006EPS3_, symObjAddr: 0x5208, symBinAddr: 0x100007098, symSize: 0x28 }
  - { offsetInCU: 0x1F35F, offset: 0x1F35F, size: 0x8, addend: 0x0, symName: __ZNSt3__19allocatorINS_6vectorIfNS0_IfEEEEE10deallocateB7v160006EPS3_m, symObjAddr: 0x5230, symBinAddr: 0x1000070C0, symSize: 0x44 }
  - { offsetInCU: 0x1F3A1, offset: 0x1F3A1, size: 0x8, addend: 0x0, symName: __ZNSt3__117__compressed_pairIPNS_6vectorIfNS_9allocatorIfEEEENS2_IS4_EEE6secondB7v160006Ev, symObjAddr: 0x5274, symBinAddr: 0x100007104, symSize: 0x24 }
  - { offsetInCU: 0x1F3C7, offset: 0x1F3C7, size: 0x8, addend: 0x0, symName: __ZNSt3__122__compressed_pair_elemINS_9allocatorINS_6vectorIfNS1_IfEEEEEELi1ELb1EE5__getB7v160006Ev, symObjAddr: 0x5298, symBinAddr: 0x100007128, symSize: 0x14 }
  - { offsetInCU: 0x1F3ED, offset: 0x1F3ED, size: 0x8, addend: 0x0, symName: __ZNKSt3__16vectorINS0_IfNS_9allocatorIfEEEENS1_IS3_EEE9__end_capB7v160006Ev, symObjAddr: 0x52AC, symBinAddr: 0x10000713C, symSize: 0x28 }
  - { offsetInCU: 0x1F413, offset: 0x1F413, size: 0x8, addend: 0x0, symName: __ZNKSt3__117__compressed_pairIPNS_6vectorIfNS_9allocatorIfEEEENS2_IS4_EEE5firstB7v160006Ev, symObjAddr: 0x52D4, symBinAddr: 0x100007164, symSize: 0x24 }
  - { offsetInCU: 0x1F439, offset: 0x1F439, size: 0x8, addend: 0x0, symName: __ZNKSt3__122__compressed_pair_elemIPNS_6vectorIfNS_9allocatorIfEEEELi0ELb0EE5__getB7v160006Ev, symObjAddr: 0x52F8, symBinAddr: 0x100007188, symSize: 0x14 }
  - { offsetInCU: 0x1F45F, offset: 0x1F45F, size: 0x8, addend: 0x0, symName: __ZNSt3__16vectorImNS_9allocatorImEEEC2EmRKm, symObjAddr: 0x530C, symBinAddr: 0x10000719C, symSize: 0xE4 }
  - { offsetInCU: 0x1F4BE, offset: 0x1F4BE, size: 0x8, addend: 0x0, symName: __ZNSt3__117__compressed_pairIPmNS_9allocatorImEEEC1B7v160006IDnNS_18__default_init_tagEEEOT_OT0_, symObjAddr: 0x53F0, symBinAddr: 0x100007280, symSize: 0x3C }
  - { offsetInCU: 0x1F516, offset: 0x1F516, size: 0x8, addend: 0x0, symName: __ZNSt3__16vectorImNS_9allocatorImEEE16__destroy_vectorC1ERS3_, symObjAddr: 0x546C, symBinAddr: 0x1000072FC, symSize: 0x34 }
  - { offsetInCU: 0x1F54F, offset: 0x1F54F, size: 0x8, addend: 0x0, symName: __ZNSt3__16vectorImNS_9allocatorImEEE11__vallocateB7v160006Em, symObjAddr: 0x54A0, symBinAddr: 0x100007330, symSize: 0xAC }
  - { offsetInCU: 0x1F593, offset: 0x1F593, size: 0x8, addend: 0x0, symName: __ZNSt3__16vectorImNS_9allocatorImEEE18__construct_at_endEmRKm, symObjAddr: 0x554C, symBinAddr: 0x1000073DC, symSize: 0xD0 }
  - { offsetInCU: 0x1F614, offset: 0x1F614, size: 0x8, addend: 0x0, symName: __ZNSt3__128__exception_guard_exceptionsINS_6vectorImNS_9allocatorImEEE16__destroy_vectorEE10__completeB7v160006Ev, symObjAddr: 0x561C, symBinAddr: 0x1000074AC, symSize: 0x1C }
  - { offsetInCU: 0x1F63A, offset: 0x1F63A, size: 0x8, addend: 0x0, symName: __ZNSt3__128__exception_guard_exceptionsINS_6vectorImNS_9allocatorImEEE16__destroy_vectorEED1B7v160006Ev, symObjAddr: 0x5638, symBinAddr: 0x1000074C8, symSize: 0x2C }
  - { offsetInCU: 0x1F664, offset: 0x1F664, size: 0x8, addend: 0x0, symName: __ZNSt3__117__compressed_pairIPmNS_9allocatorImEEEC2B7v160006IDnNS_18__default_init_tagEEEOT_OT0_, symObjAddr: 0x5664, symBinAddr: 0x1000074F4, symSize: 0x40 }
  - { offsetInCU: 0x1F6BC, offset: 0x1F6BC, size: 0x8, addend: 0x0, symName: __ZNSt3__122__compressed_pair_elemINS_9allocatorImEELi1ELb1EEC2B7v160006ENS_18__default_init_tagE, symObjAddr: 0x56A4, symBinAddr: 0x100007534, symSize: 0x2C }
  - { offsetInCU: 0x1F6F1, offset: 0x1F6F1, size: 0x8, addend: 0x0, symName: __ZNSt3__19allocatorImEC2B7v160006Ev, symObjAddr: 0x56D0, symBinAddr: 0x100007560, symSize: 0x2C }
  - { offsetInCU: 0x1F71B, offset: 0x1F71B, size: 0x8, addend: 0x0, symName: __ZNSt3__116__non_trivial_ifILb1ENS_9allocatorImEEEC2B7v160006Ev, symObjAddr: 0x56FC, symBinAddr: 0x10000758C, symSize: 0x14 }
  - { offsetInCU: 0x1F745, offset: 0x1F745, size: 0x8, addend: 0x0, symName: __ZNSt3__128__exception_guard_exceptionsINS_6vectorImNS_9allocatorImEEE16__destroy_vectorEEC1B7v160006ES5_, symObjAddr: 0x5710, symBinAddr: 0x1000075A0, symSize: 0x34 }
  - { offsetInCU: 0x1F77D, offset: 0x1F77D, size: 0x8, addend: 0x0, symName: __ZNSt3__128__exception_guard_exceptionsINS_6vectorImNS_9allocatorImEEE16__destroy_vectorEEC2B7v160006ES5_, symObjAddr: 0x5744, symBinAddr: 0x1000075D4, symSize: 0x24 }
  - { offsetInCU: 0x1F7B5, offset: 0x1F7B5, size: 0x8, addend: 0x0, symName: __ZNSt3__16vectorImNS_9allocatorImEEE16__destroy_vectorC2ERS3_, symObjAddr: 0x5768, symBinAddr: 0x1000075F8, symSize: 0x20 }
  - { offsetInCU: 0x1F7EE, offset: 0x1F7EE, size: 0x8, addend: 0x0, symName: __ZNKSt3__16vectorImNS_9allocatorImEEE8max_sizeEv, symObjAddr: 0x5788, symBinAddr: 0x100007618, symSize: 0x60 }
  - { offsetInCU: 0x1F816, offset: 0x1F816, size: 0x8, addend: 0x0, symName: __ZNKSt3__16vectorImNS_9allocatorImEEE20__throw_length_errorB7v160006Ev, symObjAddr: 0x57E8, symBinAddr: 0x100007678, symSize: 0x1C }
  - { offsetInCU: 0x1F83C, offset: 0x1F83C, size: 0x8, addend: 0x0, symName: __ZNKSt3__16vectorImNS_9allocatorImEEE14__annotate_newB7v160006Em, symObjAddr: 0x5844, symBinAddr: 0x1000076D4, symSize: 0xAC }
  - { offsetInCU: 0x1F87B, offset: 0x1F87B, size: 0x8, addend: 0x0, symName: __ZNSt3__116allocator_traitsINS_9allocatorImEEE8max_sizeB7v160006IS2_vEEmRKS2_, symObjAddr: 0x591C, symBinAddr: 0x1000077AC, symSize: 0x24 }
  - { offsetInCU: 0x1F8A9, offset: 0x1F8A9, size: 0x8, addend: 0x0, symName: __ZNKSt3__16vectorImNS_9allocatorImEEE7__allocB7v160006Ev, symObjAddr: 0x5940, symBinAddr: 0x1000077D0, symSize: 0x28 }
  - { offsetInCU: 0x1F8CF, offset: 0x1F8CF, size: 0x8, addend: 0x0, symName: __ZNSt3__114numeric_limitsIlE3maxB7v160006Ev, symObjAddr: 0x5968, symBinAddr: 0x1000077F8, symSize: 0x14 }
  - { offsetInCU: 0x1F8ED, offset: 0x1F8ED, size: 0x8, addend: 0x0, symName: __ZNKSt3__16__lessImmEclB7v160006ERKmS3_, symObjAddr: 0x59D0, symBinAddr: 0x100007860, symSize: 0x34 }
  - { offsetInCU: 0x1F92F, offset: 0x1F92F, size: 0x8, addend: 0x0, symName: __ZNKSt3__19allocatorImE8max_sizeB7v160006Ev, symObjAddr: 0x5A04, symBinAddr: 0x100007894, symSize: 0x14 }
  - { offsetInCU: 0x1F955, offset: 0x1F955, size: 0x8, addend: 0x0, symName: __ZNKSt3__117__compressed_pairIPmNS_9allocatorImEEE6secondB7v160006Ev, symObjAddr: 0x5A18, symBinAddr: 0x1000078A8, symSize: 0x24 }
  - { offsetInCU: 0x1F97B, offset: 0x1F97B, size: 0x8, addend: 0x0, symName: __ZNKSt3__122__compressed_pair_elemINS_9allocatorImEELi1ELb1EE5__getB7v160006Ev, symObjAddr: 0x5A3C, symBinAddr: 0x1000078CC, symSize: 0x14 }
  - { offsetInCU: 0x1F9A1, offset: 0x1F9A1, size: 0x8, addend: 0x0, symName: __ZNSt3__123__libcpp_numeric_limitsIlLb1EE3maxB7v160006Ev, symObjAddr: 0x5A50, symBinAddr: 0x1000078E0, symSize: 0x8 }
  - { offsetInCU: 0x1F9B5, offset: 0x1F9B5, size: 0x8, addend: 0x0, symName: __ZNSt12length_errorC1B7v160006EPKc, symObjAddr: 0x5ABC, symBinAddr: 0x10000794C, symSize: 0x34 }
  - { offsetInCU: 0x1F9ED, offset: 0x1F9ED, size: 0x8, addend: 0x0, symName: __ZNSt12length_errorC2B7v160006EPKc, symObjAddr: 0x5AF0, symBinAddr: 0x100007980, symSize: 0x4C }
  - { offsetInCU: 0x1FA25, offset: 0x1FA25, size: 0x8, addend: 0x0, symName: __ZNSt3__19allocatorImE8allocateB7v160006Em, symObjAddr: 0x5B3C, symBinAddr: 0x1000079CC, symSize: 0x58 }
  - { offsetInCU: 0x1FA59, offset: 0x1FA59, size: 0x8, addend: 0x0, symName: __ZNKSt3__16vectorImNS_9allocatorImEEE31__annotate_contiguous_containerB7v160006EPKvS5_S5_S5_, symObjAddr: 0x5C78, symBinAddr: 0x100007B08, symSize: 0x20 }
  - { offsetInCU: 0x1FAAB, offset: 0x1FAAB, size: 0x8, addend: 0x0, symName: __ZNKSt3__16vectorImNS_9allocatorImEEE4dataB7v160006Ev, symObjAddr: 0x5C98, symBinAddr: 0x100007B28, symSize: 0x28 }
  - { offsetInCU: 0x1FAD1, offset: 0x1FAD1, size: 0x8, addend: 0x0, symName: __ZNKSt3__16vectorImNS_9allocatorImEEE8capacityB7v160006Ev, symObjAddr: 0x5CC0, symBinAddr: 0x100007B50, symSize: 0x40 }
  - { offsetInCU: 0x1FAF7, offset: 0x1FAF7, size: 0x8, addend: 0x0, symName: __ZNKSt3__16vectorImNS_9allocatorImEEE9__end_capB7v160006Ev, symObjAddr: 0x5D14, symBinAddr: 0x100007BA4, symSize: 0x28 }
  - { offsetInCU: 0x1FB1D, offset: 0x1FB1D, size: 0x8, addend: 0x0, symName: __ZNKSt3__117__compressed_pairIPmNS_9allocatorImEEE5firstB7v160006Ev, symObjAddr: 0x5D3C, symBinAddr: 0x100007BCC, symSize: 0x24 }
  - { offsetInCU: 0x1FB43, offset: 0x1FB43, size: 0x8, addend: 0x0, symName: __ZNKSt3__122__compressed_pair_elemIPmLi0ELb0EE5__getB7v160006Ev, symObjAddr: 0x5D60, symBinAddr: 0x100007BF0, symSize: 0x14 }
  - { offsetInCU: 0x1FB82, offset: 0x1FB82, size: 0x8, addend: 0x0, symName: __ZNSt3__16vectorImNS_9allocatorImEEE21_ConstructTransactionC1B7v160006ERS3_m, symObjAddr: 0x5D74, symBinAddr: 0x100007C04, symSize: 0x3C }
  - { offsetInCU: 0x1FBCA, offset: 0x1FBCA, size: 0x8, addend: 0x0, symName: __ZNSt3__116allocator_traitsINS_9allocatorImEEE9constructB7v160006ImJRKmEvEEvRS2_PT_DpOT0_, symObjAddr: 0x5DB0, symBinAddr: 0x100007C40, symSize: 0x34 }
  - { offsetInCU: 0x1FC21, offset: 0x1FC21, size: 0x8, addend: 0x0, symName: __ZNSt3__16vectorImNS_9allocatorImEEE21_ConstructTransactionD1B7v160006Ev, symObjAddr: 0x5DE4, symBinAddr: 0x100007C74, symSize: 0x2C }
  - { offsetInCU: 0x1FC4B, offset: 0x1FC4B, size: 0x8, addend: 0x0, symName: __ZNSt3__16vectorImNS_9allocatorImEEE21_ConstructTransactionC2B7v160006ERS3_m, symObjAddr: 0x5E10, symBinAddr: 0x100007CA0, symSize: 0x44 }
  - { offsetInCU: 0x1FC93, offset: 0x1FC93, size: 0x8, addend: 0x0, symName: __ZNSt3__19allocatorImE9constructB7v160006ImJRKmEEEvPT_DpOT0_, symObjAddr: 0x5E54, symBinAddr: 0x100007CE4, symSize: 0x28 }
  - { offsetInCU: 0x1FCE9, offset: 0x1FCE9, size: 0x8, addend: 0x0, symName: __ZNSt3__16vectorImNS_9allocatorImEEE21_ConstructTransactionD2B7v160006Ev, symObjAddr: 0x5E7C, symBinAddr: 0x100007D0C, symSize: 0x20 }
  - { offsetInCU: 0x1FD13, offset: 0x1FD13, size: 0x8, addend: 0x0, symName: __ZNSt3__128__exception_guard_exceptionsINS_6vectorImNS_9allocatorImEEE16__destroy_vectorEED2B7v160006Ev, symObjAddr: 0x5E9C, symBinAddr: 0x100007D2C, symSize: 0x50 }
  - { offsetInCU: 0x1FD3D, offset: 0x1FD3D, size: 0x8, addend: 0x0, symName: __ZNSt3__16vectorImNS_9allocatorImEEE16__destroy_vectorclB7v160006Ev, symObjAddr: 0x5EEC, symBinAddr: 0x100007D7C, symSize: 0x9C }
  - { offsetInCU: 0x1FD63, offset: 0x1FD63, size: 0x8, addend: 0x0, symName: __ZNKSt3__16vectorImNS_9allocatorImEEE17__annotate_deleteB7v160006Ev, symObjAddr: 0x5F88, symBinAddr: 0x100007E18, symSize: 0xB8 }
  - { offsetInCU: 0x1FD89, offset: 0x1FD89, size: 0x8, addend: 0x0, symName: __ZNSt3__16vectorImNS_9allocatorImEEE7__clearB7v160006Ev, symObjAddr: 0x6050, symBinAddr: 0x100007EE0, symSize: 0x28 }
  - { offsetInCU: 0x1FDAF, offset: 0x1FDAF, size: 0x8, addend: 0x0, symName: __ZNSt3__116allocator_traitsINS_9allocatorImEEE10deallocateB7v160006ERS2_Pmm, symObjAddr: 0x6078, symBinAddr: 0x100007F08, symSize: 0x34 }
  - { offsetInCU: 0x1FDF1, offset: 0x1FDF1, size: 0x8, addend: 0x0, symName: __ZNSt3__16vectorImNS_9allocatorImEEE22__base_destruct_at_endB7v160006EPm, symObjAddr: 0x60AC, symBinAddr: 0x100007F3C, symSize: 0x8C }
  - { offsetInCU: 0x1FE35, offset: 0x1FE35, size: 0x8, addend: 0x0, symName: __ZNSt3__116allocator_traitsINS_9allocatorImEEE7destroyB7v160006ImvEEvRS2_PT_, symObjAddr: 0x6138, symBinAddr: 0x100007FC8, symSize: 0x2C }
  - { offsetInCU: 0x1FE72, offset: 0x1FE72, size: 0x8, addend: 0x0, symName: __ZNSt3__19allocatorImE7destroyB7v160006EPm, symObjAddr: 0x6164, symBinAddr: 0x100007FF4, symSize: 0x14 }
  - { offsetInCU: 0x1FEA6, offset: 0x1FEA6, size: 0x8, addend: 0x0, symName: __ZNSt3__19allocatorImE10deallocateB7v160006EPmm, symObjAddr: 0x6178, symBinAddr: 0x100008008, symSize: 0x40 }
  - { offsetInCU: 0x1FEE8, offset: 0x1FEE8, size: 0x8, addend: 0x0, symName: __ZNSt3__16vectorImNS_9allocatorImEEED2B7v160006Ev, symObjAddr: 0x61B8, symBinAddr: 0x100008048, symSize: 0x44 }
  - { offsetInCU: 0x1FF12, offset: 0x1FF12, size: 0x8, addend: 0x0, symName: __ZNSt3__16vectorImNS_9allocatorImEEEC2B7v160006Ev, symObjAddr: 0x61FC, symBinAddr: 0x10000808C, symSize: 0x54 }
  - { offsetInCU: 0x1FF3C, offset: 0x1FF3C, size: 0x8, addend: 0x0, symName: __ZNSt3__16vectorINS_4pairINS0_ImNS_9allocatorImEEEES4_EENS2_IS5_EEEC2EmRKS5_, symObjAddr: 0x6250, symBinAddr: 0x1000080E0, symSize: 0xE8 }
  - { offsetInCU: 0x1FF9B, offset: 0x1FF9B, size: 0x8, addend: 0x0, symName: __ZNSt3__117__compressed_pairIPNS_4pairINS_6vectorImNS_9allocatorImEEEES5_EENS3_IS6_EEEC1B7v160006IDnNS_18__default_init_tagEEEOT_OT0_, symObjAddr: 0x6338, symBinAddr: 0x1000081C8, symSize: 0x3C }
  - { offsetInCU: 0x1FFF3, offset: 0x1FFF3, size: 0x8, addend: 0x0, symName: __ZNSt3__16vectorINS_4pairINS0_ImNS_9allocatorImEEEES4_EENS2_IS5_EEE11__vallocateB7v160006Em, symObjAddr: 0x63C4, symBinAddr: 0x100008254, symSize: 0xB4 }
  - { offsetInCU: 0x20037, offset: 0x20037, size: 0x8, addend: 0x0, symName: __ZNSt3__16vectorINS_4pairINS0_ImNS_9allocatorImEEEES4_EENS2_IS5_EEE18__construct_at_endEmRKS5_, symObjAddr: 0x6478, symBinAddr: 0x100008308, symSize: 0xD0 }
  - { offsetInCU: 0x200B8, offset: 0x200B8, size: 0x8, addend: 0x0, symName: __ZNSt3__128__exception_guard_exceptionsINS_6vectorINS_4pairINS1_ImNS_9allocatorImEEEES5_EENS3_IS6_EEE16__destroy_vectorEE10__completeB7v160006Ev, symObjAddr: 0x6548, symBinAddr: 0x1000083D8, symSize: 0x1C }
  - { offsetInCU: 0x200DE, offset: 0x200DE, size: 0x8, addend: 0x0, symName: __ZNSt3__128__exception_guard_exceptionsINS_6vectorINS_4pairINS1_ImNS_9allocatorImEEEES5_EENS3_IS6_EEE16__destroy_vectorEED1B7v160006Ev, symObjAddr: 0x6564, symBinAddr: 0x1000083F4, symSize: 0x2C }
  - { offsetInCU: 0x20108, offset: 0x20108, size: 0x8, addend: 0x0, symName: __ZNSt3__117__compressed_pairIPNS_4pairINS_6vectorImNS_9allocatorImEEEES5_EENS3_IS6_EEEC2B7v160006IDnNS_18__default_init_tagEEEOT_OT0_, symObjAddr: 0x6590, symBinAddr: 0x100008420, symSize: 0x40 }
  - { offsetInCU: 0x20160, offset: 0x20160, size: 0x8, addend: 0x0, symName: __ZNSt3__122__compressed_pair_elemIPNS_4pairINS_6vectorImNS_9allocatorImEEEES5_EELi0ELb0EEC2B7v160006IDnvEEOT_, symObjAddr: 0x65D0, symBinAddr: 0x100008460, symSize: 0x1C }
  - { offsetInCU: 0x201A2, offset: 0x201A2, size: 0x8, addend: 0x0, symName: __ZNSt3__122__compressed_pair_elemINS_9allocatorINS_4pairINS_6vectorImNS1_ImEEEES5_EEEELi1ELb1EEC2B7v160006ENS_18__default_init_tagE, symObjAddr: 0x65EC, symBinAddr: 0x10000847C, symSize: 0x2C }
  - { offsetInCU: 0x201D7, offset: 0x201D7, size: 0x8, addend: 0x0, symName: __ZNSt3__19allocatorINS_4pairINS_6vectorImNS0_ImEEEES4_EEEC2B7v160006Ev, symObjAddr: 0x6618, symBinAddr: 0x1000084A8, symSize: 0x2C }
  - { offsetInCU: 0x20201, offset: 0x20201, size: 0x8, addend: 0x0, symName: __ZNSt3__116__non_trivial_ifILb1ENS_9allocatorINS_4pairINS_6vectorImNS1_ImEEEES5_EEEEEC2B7v160006Ev, symObjAddr: 0x6644, symBinAddr: 0x1000084D4, symSize: 0x14 }
  - { offsetInCU: 0x2022B, offset: 0x2022B, size: 0x8, addend: 0x0, symName: __ZNSt3__128__exception_guard_exceptionsINS_6vectorINS_4pairINS1_ImNS_9allocatorImEEEES5_EENS3_IS6_EEE16__destroy_vectorEEC1B7v160006ES9_, symObjAddr: 0x6658, symBinAddr: 0x1000084E8, symSize: 0x34 }
  - { offsetInCU: 0x20263, offset: 0x20263, size: 0x8, addend: 0x0, symName: __ZNSt3__128__exception_guard_exceptionsINS_6vectorINS_4pairINS1_ImNS_9allocatorImEEEES5_EENS3_IS6_EEE16__destroy_vectorEEC2B7v160006ES9_, symObjAddr: 0x668C, symBinAddr: 0x10000851C, symSize: 0x24 }
  - { offsetInCU: 0x2029B, offset: 0x2029B, size: 0x8, addend: 0x0, symName: __ZNKSt3__16vectorINS_4pairINS0_ImNS_9allocatorImEEEES4_EENS2_IS5_EEE8max_sizeEv, symObjAddr: 0x66B0, symBinAddr: 0x100008540, symSize: 0x60 }
  - { offsetInCU: 0x202C3, offset: 0x202C3, size: 0x8, addend: 0x0, symName: __ZNKSt3__16vectorINS_4pairINS0_ImNS_9allocatorImEEEES4_EENS2_IS5_EEE20__throw_length_errorB7v160006Ev, symObjAddr: 0x6710, symBinAddr: 0x1000085A0, symSize: 0x1C }
  - { offsetInCU: 0x202E9, offset: 0x202E9, size: 0x8, addend: 0x0, symName: __ZNSt3__16vectorINS_4pairINS0_ImNS_9allocatorImEEEES4_EENS2_IS5_EEE9__end_capB7v160006Ev, symObjAddr: 0x676C, symBinAddr: 0x1000085FC, symSize: 0x28 }
  - { offsetInCU: 0x2030F, offset: 0x2030F, size: 0x8, addend: 0x0, symName: __ZNKSt3__16vectorINS_4pairINS0_ImNS_9allocatorImEEEES4_EENS2_IS5_EEE14__annotate_newB7v160006Em, symObjAddr: 0x6794, symBinAddr: 0x100008624, symSize: 0xC8 }
  - { offsetInCU: 0x2034E, offset: 0x2034E, size: 0x8, addend: 0x0, symName: __ZNSt3__116allocator_traitsINS_9allocatorINS_4pairINS_6vectorImNS1_ImEEEES5_EEEEE8max_sizeB7v160006IS7_vEEmRKS7_, symObjAddr: 0x685C, symBinAddr: 0x1000086EC, symSize: 0x24 }
  - { offsetInCU: 0x2037C, offset: 0x2037C, size: 0x8, addend: 0x0, symName: __ZNKSt3__16vectorINS_4pairINS0_ImNS_9allocatorImEEEES4_EENS2_IS5_EEE7__allocB7v160006Ev, symObjAddr: 0x6880, symBinAddr: 0x100008710, symSize: 0x28 }
  - { offsetInCU: 0x203A2, offset: 0x203A2, size: 0x8, addend: 0x0, symName: __ZNKSt3__19allocatorINS_4pairINS_6vectorImNS0_ImEEEES4_EEE8max_sizeB7v160006Ev, symObjAddr: 0x68A8, symBinAddr: 0x100008738, symSize: 0x18 }
  - { offsetInCU: 0x203C8, offset: 0x203C8, size: 0x8, addend: 0x0, symName: __ZNKSt3__117__compressed_pairIPNS_4pairINS_6vectorImNS_9allocatorImEEEES5_EENS3_IS6_EEE6secondB7v160006Ev, symObjAddr: 0x68C0, symBinAddr: 0x100008750, symSize: 0x24 }
  - { offsetInCU: 0x203EE, offset: 0x203EE, size: 0x8, addend: 0x0, symName: __ZNKSt3__122__compressed_pair_elemINS_9allocatorINS_4pairINS_6vectorImNS1_ImEEEES5_EEEELi1ELb1EE5__getB7v160006Ev, symObjAddr: 0x68E4, symBinAddr: 0x100008774, symSize: 0x14 }
  - { offsetInCU: 0x20414, offset: 0x20414, size: 0x8, addend: 0x0, symName: __ZNSt3__19allocatorINS_4pairINS_6vectorImNS0_ImEEEES4_EEE8allocateB7v160006Em, symObjAddr: 0x68F8, symBinAddr: 0x100008788, symSize: 0x5C }
  - { offsetInCU: 0x20448, offset: 0x20448, size: 0x8, addend: 0x0, symName: __ZNSt3__117__compressed_pairIPNS_4pairINS_6vectorImNS_9allocatorImEEEES5_EENS3_IS6_EEE5firstB7v160006Ev, symObjAddr: 0x6954, symBinAddr: 0x1000087E4, symSize: 0x24 }
  - { offsetInCU: 0x2046E, offset: 0x2046E, size: 0x8, addend: 0x0, symName: __ZNSt3__122__compressed_pair_elemIPNS_4pairINS_6vectorImNS_9allocatorImEEEES5_EELi0ELb0EE5__getB7v160006Ev, symObjAddr: 0x6978, symBinAddr: 0x100008808, symSize: 0x14 }
  - { offsetInCU: 0x204AD, offset: 0x204AD, size: 0x8, addend: 0x0, symName: __ZNSt3__16vectorINS_4pairINS0_ImNS_9allocatorImEEEES4_EENS2_IS5_EEE21_ConstructTransactionC1B7v160006ERS7_m, symObjAddr: 0x698C, symBinAddr: 0x10000881C, symSize: 0x3C }
  - { offsetInCU: 0x204F5, offset: 0x204F5, size: 0x8, addend: 0x0, symName: __ZNSt3__116allocator_traitsINS_9allocatorINS_4pairINS_6vectorImNS1_ImEEEES5_EEEEE9constructB7v160006IS6_JRKS6_EvEEvRS7_PT_DpOT0_, symObjAddr: 0x69C8, symBinAddr: 0x100008858, symSize: 0x34 }
  - { offsetInCU: 0x2054C, offset: 0x2054C, size: 0x8, addend: 0x0, symName: __ZNSt3__16vectorINS_4pairINS0_ImNS_9allocatorImEEEES4_EENS2_IS5_EEE21_ConstructTransactionD1B7v160006Ev, symObjAddr: 0x69FC, symBinAddr: 0x10000888C, symSize: 0x2C }
  - { offsetInCU: 0x20576, offset: 0x20576, size: 0x8, addend: 0x0, symName: __ZNSt3__16vectorINS_4pairINS0_ImNS_9allocatorImEEEES4_EENS2_IS5_EEE21_ConstructTransactionC2B7v160006ERS7_m, symObjAddr: 0x6A28, symBinAddr: 0x1000088B8, symSize: 0x4C }
  - { offsetInCU: 0x205BE, offset: 0x205BE, size: 0x8, addend: 0x0, symName: __ZNSt3__19allocatorINS_4pairINS_6vectorImNS0_ImEEEES4_EEE9constructB7v160006IS5_JRKS5_EEEvPT_DpOT0_, symObjAddr: 0x6A74, symBinAddr: 0x100008904, symSize: 0x30 }
  - { offsetInCU: 0x20614, offset: 0x20614, size: 0x8, addend: 0x0, symName: __ZNSt3__14pairINS_6vectorImNS_9allocatorImEEEES4_EC1ERKS5_, symObjAddr: 0x6AA4, symBinAddr: 0x100008934, symSize: 0x34 }
  - { offsetInCU: 0x20649, offset: 0x20649, size: 0x8, addend: 0x0, symName: __ZNSt3__14pairINS_6vectorImNS_9allocatorImEEEES4_EC2ERKS5_, symObjAddr: 0x6AD8, symBinAddr: 0x100008968, symSize: 0x70 }
  - { offsetInCU: 0x2067E, offset: 0x2067E, size: 0x8, addend: 0x0, symName: __ZNSt3__16vectorImNS_9allocatorImEEEC1ERKS3_, symObjAddr: 0x6B48, symBinAddr: 0x1000089D8, symSize: 0x34 }
  - { offsetInCU: 0x206B9, offset: 0x206B9, size: 0x8, addend: 0x0, symName: __ZNSt3__16vectorImNS_9allocatorImEEEC2ERKS3_, symObjAddr: 0x6B7C, symBinAddr: 0x100008A0C, symSize: 0x110 }
  - { offsetInCU: 0x20718, offset: 0x20718, size: 0x8, addend: 0x0, symName: __ZNSt3__116allocator_traitsINS_9allocatorImEEE37select_on_container_copy_constructionB7v160006IS2_vvEES2_RKS2_, symObjAddr: 0x6C8C, symBinAddr: 0x100008B1C, symSize: 0x10 }
  - { offsetInCU: 0x20747, offset: 0x20747, size: 0x8, addend: 0x0, symName: __ZNSt3__16vectorImNS_9allocatorImEEE18__construct_at_endIPmLi0EEEvT_S6_m, symObjAddr: 0x6C9C, symBinAddr: 0x100008B2C, symSize: 0x8C }
  - { offsetInCU: 0x207BA, offset: 0x207BA, size: 0x8, addend: 0x0, symName: __ZNSt3__129_AllocatorDestroyRangeReverseINS_9allocatorImEEPmEC1B7v160006ERS2_RS3_S6_, symObjAddr: 0x6E68, symBinAddr: 0x100008CF8, symSize: 0x44 }
  - { offsetInCU: 0x20811, offset: 0x20811, size: 0x8, addend: 0x0, symName: __ZNSt3__116allocator_traitsINS_9allocatorImEEE9constructB7v160006ImJRmEvEEvRS2_PT_DpOT0_, symObjAddr: 0x6EAC, symBinAddr: 0x100008D3C, symSize: 0x34 }
  - { offsetInCU: 0x20868, offset: 0x20868, size: 0x8, addend: 0x0, symName: __ZNSt3__128__exception_guard_exceptionsINS_29_AllocatorDestroyRangeReverseINS_9allocatorImEEPmEEE10__completeB7v160006Ev, symObjAddr: 0x6EE0, symBinAddr: 0x100008D70, symSize: 0x1C }
  - { offsetInCU: 0x2088E, offset: 0x2088E, size: 0x8, addend: 0x0, symName: __ZNSt3__128__exception_guard_exceptionsINS_29_AllocatorDestroyRangeReverseINS_9allocatorImEEPmEEED1B7v160006Ev, symObjAddr: 0x6EFC, symBinAddr: 0x100008D8C, symSize: 0x2C }
  - { offsetInCU: 0x208B8, offset: 0x208B8, size: 0x8, addend: 0x0, symName: __ZNSt3__128__exception_guard_exceptionsINS_29_AllocatorDestroyRangeReverseINS_9allocatorImEEPmEEEC1B7v160006ES5_, symObjAddr: 0x6F28, symBinAddr: 0x100008DB8, symSize: 0x34 }
  - { offsetInCU: 0x208F1, offset: 0x208F1, size: 0x8, addend: 0x0, symName: __ZNSt3__128__exception_guard_exceptionsINS_29_AllocatorDestroyRangeReverseINS_9allocatorImEEPmEEEC2B7v160006ES5_, symObjAddr: 0x6F5C, symBinAddr: 0x100008DEC, symSize: 0x30 }
  - { offsetInCU: 0x2092A, offset: 0x2092A, size: 0x8, addend: 0x0, symName: __ZNSt3__129_AllocatorDestroyRangeReverseINS_9allocatorImEEPmEC2B7v160006ERS2_RS3_S6_, symObjAddr: 0x6F8C, symBinAddr: 0x100008E1C, symSize: 0x38 }
  - { offsetInCU: 0x20981, offset: 0x20981, size: 0x8, addend: 0x0, symName: __ZNSt3__19allocatorImE9constructB7v160006ImJRmEEEvPT_DpOT0_, symObjAddr: 0x6FC4, symBinAddr: 0x100008E54, symSize: 0x28 }
  - { offsetInCU: 0x209D7, offset: 0x209D7, size: 0x8, addend: 0x0, symName: __ZNSt3__128__exception_guard_exceptionsINS_29_AllocatorDestroyRangeReverseINS_9allocatorImEEPmEEED2B7v160006Ev, symObjAddr: 0x6FEC, symBinAddr: 0x100008E7C, symSize: 0x50 }
  - { offsetInCU: 0x20A01, offset: 0x20A01, size: 0x8, addend: 0x0, symName: __ZNKSt3__129_AllocatorDestroyRangeReverseINS_9allocatorImEEPmEclB7v160006Ev, symObjAddr: 0x703C, symBinAddr: 0x100008ECC, symSize: 0x68 }
  - { offsetInCU: 0x20A27, offset: 0x20A27, size: 0x8, addend: 0x0, symName: __ZNSt3__116reverse_iteratorIPmEC1B7v160006ES1_, symObjAddr: 0x7114, symBinAddr: 0x100008FA4, symSize: 0x34 }
  - { offsetInCU: 0x20A5F, offset: 0x20A5F, size: 0x8, addend: 0x0, symName: __ZNSt3__116reverse_iteratorIPmEppB7v160006Ev, symObjAddr: 0x71B4, symBinAddr: 0x100009044, symSize: 0x20 }
  - { offsetInCU: 0x20A85, offset: 0x20A85, size: 0x8, addend: 0x0, symName: __ZNKSt3__116reverse_iteratorIPmE4baseB7v160006Ev, symObjAddr: 0x71D4, symBinAddr: 0x100009064, symSize: 0x18 }
  - { offsetInCU: 0x20AB0, offset: 0x20AB0, size: 0x8, addend: 0x0, symName: __ZNSt3__119__to_address_helperINS_16reverse_iteratorIPmEEvE6__callB7v160006ERKS3_, symObjAddr: 0x71EC, symBinAddr: 0x10000907C, symSize: 0x38 }
  - { offsetInCU: 0x20AD3, offset: 0x20AD3, size: 0x8, addend: 0x0, symName: __ZNKSt3__116reverse_iteratorIPmEptB7v160006Ev, symObjAddr: 0x7224, symBinAddr: 0x1000090B4, symSize: 0x24 }
  - { offsetInCU: 0x20AF9, offset: 0x20AF9, size: 0x8, addend: 0x0, symName: __ZNKSt3__116reverse_iteratorIPmEdeB7v160006Ev, symObjAddr: 0x7248, symBinAddr: 0x1000090D8, symSize: 0x28 }
  - { offsetInCU: 0x20B2D, offset: 0x20B2D, size: 0x8, addend: 0x0, symName: __ZNSt3__116reverse_iteratorIPmEC2B7v160006ES1_, symObjAddr: 0x7270, symBinAddr: 0x100009100, symSize: 0x28 }
  - { offsetInCU: 0x20B65, offset: 0x20B65, size: 0x8, addend: 0x0, symName: __ZNSt3__16vectorINS_4pairINS0_ImNS_9allocatorImEEEES4_EENS2_IS5_EEE21_ConstructTransactionD2B7v160006Ev, symObjAddr: 0x7298, symBinAddr: 0x100009128, symSize: 0x20 }
  - { offsetInCU: 0x20B8F, offset: 0x20B8F, size: 0x8, addend: 0x0, symName: __ZNSt3__128__exception_guard_exceptionsINS_6vectorINS_4pairINS1_ImNS_9allocatorImEEEES5_EENS3_IS6_EEE16__destroy_vectorEED2B7v160006Ev, symObjAddr: 0x72B8, symBinAddr: 0x100009148, symSize: 0x50 }
  - { offsetInCU: 0x20BD7, offset: 0x20BD7, size: 0x8, addend: 0x0, symName: __ZNKSt3__113basic_istreamIcNS_11char_traitsIcEEE6sentrycvbB7v160006Ev, symObjAddr: 0x7540, symBinAddr: 0x1000093D0, symSize: 0x1C }
  - { offsetInCU: 0x20BFD, offset: 0x20BFD, size: 0x8, addend: 0x0, symName: __ZNSt3__112basic_stringIcNS_11char_traitsIcEENS_9allocatorIcEEE5clearB7v160006Ev, symObjAddr: 0x755C, symBinAddr: 0x1000093EC, symSize: 0x88 }
  - { offsetInCU: 0x20C25, offset: 0x20C25, size: 0x8, addend: 0x0, symName: __ZNSt3__115basic_streambufIcNS_11char_traitsIcEEE6sbumpcB7v160006Ev, symObjAddr: 0x75E4, symBinAddr: 0x100009474, symSize: 0x78 }
  - { offsetInCU: 0x20C4B, offset: 0x20C4B, size: 0x8, addend: 0x0, symName: __ZNSt3__111char_traitsIcE12to_char_typeEi, symObjAddr: 0x765C, symBinAddr: 0x1000094EC, symSize: 0x18 }
  - { offsetInCU: 0x20C6E, offset: 0x20C6E, size: 0x8, addend: 0x0, symName: __ZNSt3__111char_traitsIcE2eqEcc, symObjAddr: 0x7674, symBinAddr: 0x100009504, symSize: 0x28 }
  - { offsetInCU: 0x20C9F, offset: 0x20C9F, size: 0x8, addend: 0x0, symName: __ZNKSt3__112basic_stringIcNS_11char_traitsIcEENS_9allocatorIcEEE4sizeB7v160006Ev, symObjAddr: 0x769C, symBinAddr: 0x10000952C, symSize: 0x54 }
  - { offsetInCU: 0x20CC5, offset: 0x20CC5, size: 0x8, addend: 0x0, symName: __ZNKSt3__112basic_stringIcNS_11char_traitsIcEENS_9allocatorIcEEE8max_sizeB7v160006Ev, symObjAddr: 0x76F0, symBinAddr: 0x100009580, symSize: 0xAC }
  - { offsetInCU: 0x20D17, offset: 0x20D17, size: 0x8, addend: 0x0, symName: __ZNSt3__18ios_base18__setstate_nothrowB7v160006Ej, symObjAddr: 0x779C, symBinAddr: 0x10000962C, symSize: 0x64 }
  - { offsetInCU: 0x20D4C, offset: 0x20D4C, size: 0x8, addend: 0x0, symName: __ZNKSt3__19basic_iosIcNS_11char_traitsIcEEE10exceptionsB7v160006Ev, symObjAddr: 0x7800, symBinAddr: 0x100009690, symSize: 0x24 }
  - { offsetInCU: 0x20D72, offset: 0x20D72, size: 0x8, addend: 0x0, symName: __ZNSt3__111char_traitsIcE6assignERcRKc, symObjAddr: 0x7834, symBinAddr: 0x1000096C4, symSize: 0x24 }
  - { offsetInCU: 0x20DA3, offset: 0x20DA3, size: 0x8, addend: 0x0, symName: __ZNSt3__112basic_stringIcNS_11char_traitsIcEENS_9allocatorIcEEE15__set_long_sizeB7v160006Em, symObjAddr: 0x7858, symBinAddr: 0x1000096E8, symSize: 0x38 }
  - { offsetInCU: 0x20DD8, offset: 0x20DD8, size: 0x8, addend: 0x0, symName: __ZNSt3__112basic_stringIcNS_11char_traitsIcEENS_9allocatorIcEEE16__set_short_sizeB7v160006Em, symObjAddr: 0x7890, symBinAddr: 0x100009720, symSize: 0x78 }
  - { offsetInCU: 0x20E0D, offset: 0x20E0D, size: 0x8, addend: 0x0, symName: __ZNSt3__111char_traitsIcE11to_int_typeEc, symObjAddr: 0x7908, symBinAddr: 0x100009798, symSize: 0x14 }
  - { offsetInCU: 0x20E30, offset: 0x20E30, size: 0x8, addend: 0x0, symName: __ZNKSt3__112basic_stringIcNS_11char_traitsIcEENS_9allocatorIcEEE15__get_long_sizeB7v160006Ev, symObjAddr: 0x791C, symBinAddr: 0x1000097AC, symSize: 0x28 }
  - { offsetInCU: 0x20E56, offset: 0x20E56, size: 0x8, addend: 0x0, symName: __ZNKSt3__112basic_stringIcNS_11char_traitsIcEENS_9allocatorIcEEE16__get_short_sizeB7v160006Ev, symObjAddr: 0x7944, symBinAddr: 0x1000097D4, symSize: 0x34 }
  - { offsetInCU: 0x20E86, offset: 0x20E86, size: 0x8, addend: 0x0, symName: __ZNSt3__116allocator_traitsINS_9allocatorIcEEE8max_sizeB7v160006IS2_vEEmRKS2_, symObjAddr: 0x7978, symBinAddr: 0x100009808, symSize: 0x24 }
  - { offsetInCU: 0x20EB4, offset: 0x20EB4, size: 0x8, addend: 0x0, symName: __ZNKSt3__112basic_stringIcNS_11char_traitsIcEENS_9allocatorIcEEE7__allocB7v160006Ev, symObjAddr: 0x799C, symBinAddr: 0x10000982C, symSize: 0x24 }
  - { offsetInCU: 0x20EDA, offset: 0x20EDA, size: 0x8, addend: 0x0, symName: __ZNSt3__114numeric_limitsImE3maxB7v160006Ev, symObjAddr: 0x79C0, symBinAddr: 0x100009850, symSize: 0x14 }
  - { offsetInCU: 0x20EEE, offset: 0x20EEE, size: 0x8, addend: 0x0, symName: __ZNKSt3__19allocatorIcE8max_sizeB7v160006Ev, symObjAddr: 0x79D4, symBinAddr: 0x100009864, symSize: 0x14 }
  - { offsetInCU: 0x20F14, offset: 0x20F14, size: 0x8, addend: 0x0, symName: __ZNKSt3__117__compressed_pairINS_12basic_stringIcNS_11char_traitsIcEENS_9allocatorIcEEE5__repES5_E6secondB7v160006Ev, symObjAddr: 0x79E8, symBinAddr: 0x100009878, symSize: 0x24 }
  - { offsetInCU: 0x20F3A, offset: 0x20F3A, size: 0x8, addend: 0x0, symName: __ZNKSt3__122__compressed_pair_elemINS_9allocatorIcEELi1ELb1EE5__getB7v160006Ev, symObjAddr: 0x7A0C, symBinAddr: 0x10000989C, symSize: 0x14 }
  - { offsetInCU: 0x20F60, offset: 0x20F60, size: 0x8, addend: 0x0, symName: __ZNSt3__123__libcpp_numeric_limitsImLb1EE3maxB7v160006Ev, symObjAddr: 0x7A20, symBinAddr: 0x1000098B0, symSize: 0x8 }
  - { offsetInCU: 0x20F74, offset: 0x20F74, size: 0x8, addend: 0x0, symName: __ZNKSt3__18ios_base10exceptionsB7v160006Ev, symObjAddr: 0x7A28, symBinAddr: 0x1000098B8, symSize: 0x18 }
  - { offsetInCU: 0x20F9C, offset: 0x20F9C, size: 0x8, addend: 0x0, symName: __ZNKSt3__19basic_iosIcNS_11char_traitsIcEEE4failB7v160006Ev, symObjAddr: 0x7A40, symBinAddr: 0x1000098D0, symSize: 0x28 }
  - { offsetInCU: 0x20FC2, offset: 0x20FC2, size: 0x8, addend: 0x0, symName: __ZNKSt3__18ios_base4failB7v160006Ev, symObjAddr: 0x7A68, symBinAddr: 0x1000098F8, symSize: 0x28 }
  - { offsetInCU: 0x20FEA, offset: 0x20FEA, size: 0x8, addend: 0x0, symName: __ZNSt3__115basic_stringbufIcNS_11char_traitsIcEENS_9allocatorIcEEEC1B7v160006ERKNS_12basic_stringIcS2_S4_EEj, symObjAddr: 0x7A90, symBinAddr: 0x100009920, symSize: 0x3C }
  - { offsetInCU: 0x21030, offset: 0x21030, size: 0x8, addend: 0x0, symName: __ZNSt3__115basic_stringbufIcNS_11char_traitsIcEENS_9allocatorIcEEEC2B7v160006ERKNS_12basic_stringIcS2_S4_EEj, symObjAddr: 0x7ACC, symBinAddr: 0x10000995C, symSize: 0xB4 }
  - { offsetInCU: 0x21076, offset: 0x21076, size: 0x8, addend: 0x0, symName: __ZNKSt3__112basic_stringIcNS_11char_traitsIcEENS_9allocatorIcEEE13get_allocatorB7v160006Ev, symObjAddr: 0x7B80, symBinAddr: 0x100009A10, symSize: 0x24 }
  - { offsetInCU: 0x2109C, offset: 0x2109C, size: 0x8, addend: 0x0, symName: __ZNSt3__112basic_stringIcNS_11char_traitsIcEENS_9allocatorIcEEEC1B7v160006ERKS4_, symObjAddr: 0x7BA4, symBinAddr: 0x100009A34, symSize: 0x34 }
  - { offsetInCU: 0x210D5, offset: 0x210D5, size: 0x8, addend: 0x0, symName: __ZNSt3__112basic_stringIcNS_11char_traitsIcEENS_9allocatorIcEEEC2B7v160006ERKS4_, symObjAddr: 0x7BD8, symBinAddr: 0x100009A68, symSize: 0x50 }
  - { offsetInCU: 0x2110E, offset: 0x2110E, size: 0x8, addend: 0x0, symName: __ZNSt3__117__compressed_pairINS_12basic_stringIcNS_11char_traitsIcEENS_9allocatorIcEEE5__repES5_EC1B7v160006INS_18__default_init_tagERKS5_EEOT_OT0_, symObjAddr: 0x7C28, symBinAddr: 0x100009AB8, symSize: 0x3C }
  - { offsetInCU: 0x21166, offset: 0x21166, size: 0x8, addend: 0x0, symName: __ZNSt3__117__compressed_pairINS_12basic_stringIcNS_11char_traitsIcEENS_9allocatorIcEEE5__repES5_EC2B7v160006INS_18__default_init_tagERKS5_EEOT_OT0_, symObjAddr: 0x7C64, symBinAddr: 0x100009AF4, symSize: 0x40 }
  - { offsetInCU: 0x211BE, offset: 0x211BE, size: 0x8, addend: 0x0, symName: __ZNSt3__122__compressed_pair_elemINS_9allocatorIcEELi1ELb1EEC2B7v160006IRKS2_vEEOT_, symObjAddr: 0x7CA4, symBinAddr: 0x100009B34, symSize: 0x18 }
  - { offsetInCU: 0x21200, offset: 0x21200, size: 0x8, addend: 0x0, symName: __ZNSt3__112basic_stringIcNS_11char_traitsIcEENS_9allocatorIcEEEC2B7v160006IDnEEPKc, symObjAddr: 0x7CBC, symBinAddr: 0x100009B4C, symSize: 0x60 }
  - { offsetInCU: 0x2123E, offset: 0x2123E, size: 0x8, addend: 0x0, symName: __ZNKSt3__18ios_base3eofB7v160006Ev, symObjAddr: 0x7D1C, symBinAddr: 0x100009BAC, symSize: 0x24 }
  - { offsetInCU: 0x21266, offset: 0x21266, size: 0x8, addend: 0x0, symName: __ZNSt3__16vectorINS_4pairINS0_ImNS_9allocatorImEEEES4_EENS2_IS5_EEE11__make_iterB7v160006EPS5_, symObjAddr: 0x7D40, symBinAddr: 0x100009BD0, symSize: 0x34 }
  - { offsetInCU: 0x2129B, offset: 0x2129B, size: 0x8, addend: 0x0, symName: __ZNSt3__111__wrap_iterIPNS_4pairINS_6vectorImNS_9allocatorImEEEES5_EEEC1B7v160006EPKvS7_, symObjAddr: 0x7D74, symBinAddr: 0x100009C04, symSize: 0x3C }
  - { offsetInCU: 0x212E1, offset: 0x212E1, size: 0x8, addend: 0x0, symName: __ZNSt3__111__wrap_iterIPNS_4pairINS_6vectorImNS_9allocatorImEEEES5_EEEC2B7v160006EPKvS7_, symObjAddr: 0x7DB0, symBinAddr: 0x100009C40, symSize: 0x24 }
  - { offsetInCU: 0x21331, offset: 0x21331, size: 0x8, addend: 0x0, symName: '__ZZN8QPEngine12_readNetlistERNSt3__114basic_ifstreamIcNS0_11char_traitsIcEEEEENK3$_0clINS0_4pairINS0_6vectorImNS0_9allocatorImEEEESC_EEEEDaRT_', symObjAddr: 0x7E08, symBinAddr: 0x100009C98, symSize: 0x3C }
  - { offsetInCU: 0x21373, offset: 0x21373, size: 0x8, addend: 0x0, symName: __ZNKSt3__111__wrap_iterIPNS_4pairINS_6vectorImNS_9allocatorImEEEES5_EEEdeB7v160006Ev, symObjAddr: 0x7E44, symBinAddr: 0x100009CD4, symSize: 0x18 }
  - { offsetInCU: 0x21399, offset: 0x21399, size: 0x8, addend: 0x0, symName: __ZNSt3__111__wrap_iterIPNS_4pairINS_6vectorImNS_9allocatorImEEEES5_EEEppB7v160006Ev, symObjAddr: 0x7E5C, symBinAddr: 0x100009CEC, symSize: 0x20 }
  - { offsetInCU: 0x213BF, offset: 0x213BF, size: 0x8, addend: 0x0, symName: __ZNKSt3__111__wrap_iterIPNS_4pairINS_6vectorImNS_9allocatorImEEEES5_EEE4baseB7v160006Ev, symObjAddr: 0x7EC4, symBinAddr: 0x100009D54, symSize: 0x18 }
  - { offsetInCU: 0x213E5, offset: 0x213E5, size: 0x8, addend: 0x0, symName: __ZNSt3__16vectorImNS_9allocatorImEEE6resizeEmRKm, symObjAddr: 0x7EDC, symBinAddr: 0x100009D6C, symSize: 0x9C }
  - { offsetInCU: 0x2143A, offset: 0x2143A, size: 0x8, addend: 0x0, symName: __ZNSt3__16vectorImNS_9allocatorImEEE8__appendEmRKm, symObjAddr: 0x7F78, symBinAddr: 0x100009E08, symSize: 0x114 }
  - { offsetInCU: 0x214A4, offset: 0x214A4, size: 0x8, addend: 0x0, symName: __ZNSt3__16vectorImNS_9allocatorImEEE17__destruct_at_endB7v160006EPm, symObjAddr: 0x808C, symBinAddr: 0x100009F1C, symSize: 0x60 }
  - { offsetInCU: 0x214E8, offset: 0x214E8, size: 0x8, addend: 0x0, symName: __ZNKSt3__16vectorImNS_9allocatorImEEE11__recommendB7v160006Em, symObjAddr: 0x80EC, symBinAddr: 0x100009F7C, symSize: 0xB4 }
  - { offsetInCU: 0x2153D, offset: 0x2153D, size: 0x8, addend: 0x0, symName: __ZNSt3__114__split_bufferImRNS_9allocatorImEEEC1EmmS3_, symObjAddr: 0x81A0, symBinAddr: 0x10000A030, symSize: 0x44 }
  - { offsetInCU: 0x21593, offset: 0x21593, size: 0x8, addend: 0x0, symName: __ZNSt3__114__split_bufferImRNS_9allocatorImEEE18__construct_at_endEmRKm, symObjAddr: 0x81E4, symBinAddr: 0x10000A074, symSize: 0xBC }
  - { offsetInCU: 0x215E4, offset: 0x215E4, size: 0x8, addend: 0x0, symName: __ZNSt3__114__split_bufferImRNS_9allocatorImEEED1Ev, symObjAddr: 0x83B8, symBinAddr: 0x10000A248, symSize: 0x2C }
  - { offsetInCU: 0x21610, offset: 0x21610, size: 0x8, addend: 0x0, symName: __ZNSt3__114__split_bufferImRNS_9allocatorImEEEC2EmmS3_, symObjAddr: 0x8464, symBinAddr: 0x10000A2F4, symSize: 0xD4 }
  - { offsetInCU: 0x21683, offset: 0x21683, size: 0x8, addend: 0x0, symName: __ZNSt3__117__compressed_pairIPmRNS_9allocatorImEEEC1B7v160006IDnS4_EEOT_OT0_, symObjAddr: 0x8538, symBinAddr: 0x10000A3C8, symSize: 0x3C }
  - { offsetInCU: 0x216DB, offset: 0x216DB, size: 0x8, addend: 0x0, symName: __ZNSt3__114__split_bufferImRNS_9allocatorImEEE7__allocB7v160006Ev, symObjAddr: 0x8574, symBinAddr: 0x10000A404, symSize: 0x28 }
  - { offsetInCU: 0x21701, offset: 0x21701, size: 0x8, addend: 0x0, symName: __ZNSt3__114__split_bufferImRNS_9allocatorImEEE9__end_capB7v160006Ev, symObjAddr: 0x859C, symBinAddr: 0x10000A42C, symSize: 0x28 }
  - { offsetInCU: 0x21727, offset: 0x21727, size: 0x8, addend: 0x0, symName: __ZNSt3__117__compressed_pairIPmRNS_9allocatorImEEEC2B7v160006IDnS4_EEOT_OT0_, symObjAddr: 0x85C4, symBinAddr: 0x10000A454, symSize: 0x48 }
  - { offsetInCU: 0x2177F, offset: 0x2177F, size: 0x8, addend: 0x0, symName: __ZNSt3__122__compressed_pair_elemIRNS_9allocatorImEELi1ELb0EEC2B7v160006IS3_vEEOT_, symObjAddr: 0x860C, symBinAddr: 0x10000A49C, symSize: 0x20 }
  - { offsetInCU: 0x217C1, offset: 0x217C1, size: 0x8, addend: 0x0, symName: __ZNSt3__117__compressed_pairIPmRNS_9allocatorImEEE6secondB7v160006Ev, symObjAddr: 0x862C, symBinAddr: 0x10000A4BC, symSize: 0x28 }
  - { offsetInCU: 0x217E7, offset: 0x217E7, size: 0x8, addend: 0x0, symName: __ZNSt3__122__compressed_pair_elemIRNS_9allocatorImEELi1ELb0EE5__getB7v160006Ev, symObjAddr: 0x8654, symBinAddr: 0x10000A4E4, symSize: 0x18 }
  - { offsetInCU: 0x2180D, offset: 0x2180D, size: 0x8, addend: 0x0, symName: __ZNSt3__117__compressed_pairIPmRNS_9allocatorImEEE5firstB7v160006Ev, symObjAddr: 0x866C, symBinAddr: 0x10000A4FC, symSize: 0x24 }
  - { offsetInCU: 0x2183D, offset: 0x2183D, size: 0x8, addend: 0x0, symName: __ZNSt3__114__split_bufferImRNS_9allocatorImEEE21_ConstructTransactionC1B7v160006EPPmm, symObjAddr: 0x8690, symBinAddr: 0x10000A520, symSize: 0x3C }
  - { offsetInCU: 0x21883, offset: 0x21883, size: 0x8, addend: 0x0, symName: __ZNSt3__114__split_bufferImRNS_9allocatorImEEE21_ConstructTransactionD1B7v160006Ev, symObjAddr: 0x86CC, symBinAddr: 0x10000A55C, symSize: 0x2C }
  - { offsetInCU: 0x218AD, offset: 0x218AD, size: 0x8, addend: 0x0, symName: __ZNSt3__114__split_bufferImRNS_9allocatorImEEE21_ConstructTransactionC2B7v160006EPPmm, symObjAddr: 0x86F8, symBinAddr: 0x10000A588, symSize: 0x44 }
  - { offsetInCU: 0x218F3, offset: 0x218F3, size: 0x8, addend: 0x0, symName: __ZNSt3__114__split_bufferImRNS_9allocatorImEEE21_ConstructTransactionD2B7v160006Ev, symObjAddr: 0x873C, symBinAddr: 0x10000A5CC, symSize: 0x20 }
  - { offsetInCU: 0x21941, offset: 0x21941, size: 0x8, addend: 0x0, symName: __ZNKSt3__111__move_loopINS_17_ClassicAlgPolicyEEclB7v160006INS_16reverse_iteratorIPmEES6_S6_EENS_4pairIT_T1_EES8_T0_S9_, symObjAddr: 0x8B10, symBinAddr: 0x10000A9A0, symSize: 0xA0 }
  - { offsetInCU: 0x219B2, offset: 0x219B2, size: 0x8, addend: 0x0, symName: __ZNSt3__18_IterOpsINS_17_ClassicAlgPolicyEE11__iter_moveB7v160006IRNS_16reverse_iteratorIPmEEEENS_9enable_ifIXsr12is_referenceIDTdeclsr3stdE7declvalIRT_EEEEE5valueEDTclsr3stdE4movedeclsr3stdE7declvalISA_EEEEE4typeEOS9_, symObjAddr: 0x8CFC, symBinAddr: 0x10000AB8C, symSize: 0x28 }
  - { offsetInCU: 0x219DE, offset: 0x219DE, size: 0x8, addend: 0x0, symName: __ZNSt3__18_IterOpsINS_17_ClassicAlgPolicyEE25__validate_iter_referenceB7v160006IRNS_16reverse_iteratorIPmEEEEvv, symObjAddr: 0x8D24, symBinAddr: 0x10000ABB4, symSize: 0x4 }
  - { offsetInCU: 0x219FC, offset: 0x219FC, size: 0x8, addend: 0x0, symName: __ZNSt3__118__unwrap_iter_implINS_16reverse_iteratorIPmEELb0EE8__unwrapB7v160006ES3_, symObjAddr: 0x8D28, symBinAddr: 0x10000ABB8, symSize: 0x24 }
  - { offsetInCU: 0x21A25, offset: 0x21A25, size: 0x8, addend: 0x0, symName: __ZNSt3__14pairINS_16reverse_iteratorIPmEES3_EC1B7v160006IS3_S3_LPv0EEEOT_OT0_, symObjAddr: 0x8D4C, symBinAddr: 0x10000ABDC, symSize: 0x3C }
  - { offsetInCU: 0x21A83, offset: 0x21A83, size: 0x8, addend: 0x0, symName: __ZNSt3__14pairINS_16reverse_iteratorIPmEES3_EC2B7v160006IS3_S3_LPv0EEEOT_OT0_, symObjAddr: 0x8D88, symBinAddr: 0x10000AC18, symSize: 0x34 }
  - { offsetInCU: 0x21AE1, offset: 0x21AE1, size: 0x8, addend: 0x0, symName: __ZNSt3__118__unwrap_iter_implINS_16reverse_iteratorIPmEELb0EE8__rewrapB7v160006ES3_S3_, symObjAddr: 0x8DBC, symBinAddr: 0x10000AC4C, symSize: 0x2C }
  - { offsetInCU: 0x21B0F, offset: 0x21B0F, size: 0x8, addend: 0x0, symName: __ZNSt3__114__split_bufferImRNS_9allocatorImEEED2Ev, symObjAddr: 0x8DE8, symBinAddr: 0x10000AC78, symSize: 0x8C }
  - { offsetInCU: 0x21B3B, offset: 0x21B3B, size: 0x8, addend: 0x0, symName: __ZNSt3__114__split_bufferImRNS_9allocatorImEEE5clearB7v160006Ev, symObjAddr: 0x8E74, symBinAddr: 0x10000AD04, symSize: 0x28 }
  - { offsetInCU: 0x21B61, offset: 0x21B61, size: 0x8, addend: 0x0, symName: __ZNKSt3__114__split_bufferImRNS_9allocatorImEEE8capacityB7v160006Ev, symObjAddr: 0x8E9C, symBinAddr: 0x10000AD2C, symSize: 0x40 }
  - { offsetInCU: 0x21B87, offset: 0x21B87, size: 0x8, addend: 0x0, symName: __ZNSt3__114__split_bufferImRNS_9allocatorImEEE17__destruct_at_endB7v160006EPm, symObjAddr: 0x8EDC, symBinAddr: 0x10000AD6C, symSize: 0x2C }
  - { offsetInCU: 0x21BBB, offset: 0x21BBB, size: 0x8, addend: 0x0, symName: __ZNSt3__114__split_bufferImRNS_9allocatorImEEE17__destruct_at_endB7v160006EPmNS_17integral_constantIbLb0EEE, symObjAddr: 0x8F08, symBinAddr: 0x10000AD98, symSize: 0x80 }
  - { offsetInCU: 0x21BFC, offset: 0x21BFC, size: 0x8, addend: 0x0, symName: __ZNKSt3__114__split_bufferImRNS_9allocatorImEEE9__end_capB7v160006Ev, symObjAddr: 0x8F88, symBinAddr: 0x10000AE18, symSize: 0x28 }
  - { offsetInCU: 0x21C22, offset: 0x21C22, size: 0x8, addend: 0x0, symName: __ZNKSt3__117__compressed_pairIPmRNS_9allocatorImEEE5firstB7v160006Ev, symObjAddr: 0x8FB0, symBinAddr: 0x10000AE40, symSize: 0x24 }
  - { offsetInCU: 0x21C48, offset: 0x21C48, size: 0x8, addend: 0x0, symName: __ZNSt3__16vectorImNS_9allocatorImEEE27__invalidate_iterators_pastB7v160006EPm, symObjAddr: 0x8FD4, symBinAddr: 0x10000AE64, symSize: 0x14 }
  - { offsetInCU: 0x21C7F, offset: 0x21C7F, size: 0x8, addend: 0x0, symName: __ZNKSt3__16vectorImNS_9allocatorImEEE17__annotate_shrinkB7v160006Em, symObjAddr: 0x8FE8, symBinAddr: 0x10000AE78, symSize: 0xB4 }
  - { offsetInCU: 0x21CB4, offset: 0x21CB4, size: 0x8, addend: 0x0, symName: __ZNKSt3__16vectorINS_4pairIffEENS_9allocatorIS2_EEE8max_sizeEv, symObjAddr: 0x909C, symBinAddr: 0x10000AF2C, symSize: 0x60 }
  - { offsetInCU: 0x21CDC, offset: 0x21CDC, size: 0x8, addend: 0x0, symName: __ZNKSt3__16vectorINS_4pairIffEENS_9allocatorIS2_EEE20__throw_length_errorB7v160006Ev, symObjAddr: 0x90FC, symBinAddr: 0x10000AF8C, symSize: 0x1C }
  - { offsetInCU: 0x21D02, offset: 0x21D02, size: 0x8, addend: 0x0, symName: __ZNSt3__114__split_bufferINS_4pairIffEERNS_9allocatorIS2_EEEC1EmmS5_, symObjAddr: 0x9118, symBinAddr: 0x10000AFA8, symSize: 0x44 }
  - { offsetInCU: 0x21D58, offset: 0x21D58, size: 0x8, addend: 0x0, symName: __ZNSt3__114__split_bufferINS_4pairIffEERNS_9allocatorIS2_EEED1Ev, symObjAddr: 0x9274, symBinAddr: 0x10000B104, symSize: 0x2C }
  - { offsetInCU: 0x21D8E, offset: 0x21D8E, size: 0x8, addend: 0x0, symName: __ZNSt3__116allocator_traitsINS_9allocatorINS_4pairIffEEEEE8max_sizeB7v160006IS4_vEEmRKS4_, symObjAddr: 0x92A0, symBinAddr: 0x10000B130, symSize: 0x24 }
  - { offsetInCU: 0x21DBC, offset: 0x21DBC, size: 0x8, addend: 0x0, symName: __ZNKSt3__16vectorINS_4pairIffEENS_9allocatorIS2_EEE7__allocB7v160006Ev, symObjAddr: 0x92C4, symBinAddr: 0x10000B154, symSize: 0x28 }
  - { offsetInCU: 0x21DE2, offset: 0x21DE2, size: 0x8, addend: 0x0, symName: __ZNKSt3__19allocatorINS_4pairIffEEE8max_sizeB7v160006Ev, symObjAddr: 0x92EC, symBinAddr: 0x10000B17C, symSize: 0x14 }
  - { offsetInCU: 0x21E08, offset: 0x21E08, size: 0x8, addend: 0x0, symName: __ZNKSt3__117__compressed_pairIPNS_4pairIffEENS_9allocatorIS2_EEE6secondB7v160006Ev, symObjAddr: 0x9300, symBinAddr: 0x10000B190, symSize: 0x24 }
  - { offsetInCU: 0x21E2E, offset: 0x21E2E, size: 0x8, addend: 0x0, symName: __ZNKSt3__122__compressed_pair_elemINS_9allocatorINS_4pairIffEEEELi1ELb1EE5__getB7v160006Ev, symObjAddr: 0x9324, symBinAddr: 0x10000B1B4, symSize: 0x14 }
  - { offsetInCU: 0x21E54, offset: 0x21E54, size: 0x8, addend: 0x0, symName: __ZNSt3__114__split_bufferINS_4pairIffEERNS_9allocatorIS2_EEEC2EmmS5_, symObjAddr: 0x9338, symBinAddr: 0x10000B1C8, symSize: 0xD4 }
  - { offsetInCU: 0x21EC7, offset: 0x21EC7, size: 0x8, addend: 0x0, symName: __ZNSt3__117__compressed_pairIPNS_4pairIffEERNS_9allocatorIS2_EEEC1B7v160006IDnS6_EEOT_OT0_, symObjAddr: 0x940C, symBinAddr: 0x10000B29C, symSize: 0x3C }
  - { offsetInCU: 0x21F1F, offset: 0x21F1F, size: 0x8, addend: 0x0, symName: __ZNSt3__114__split_bufferINS_4pairIffEERNS_9allocatorIS2_EEE7__allocB7v160006Ev, symObjAddr: 0x9488, symBinAddr: 0x10000B318, symSize: 0x28 }
  - { offsetInCU: 0x21F45, offset: 0x21F45, size: 0x8, addend: 0x0, symName: __ZNSt3__114__split_bufferINS_4pairIffEERNS_9allocatorIS2_EEE9__end_capB7v160006Ev, symObjAddr: 0x94B0, symBinAddr: 0x10000B340, symSize: 0x28 }
  - { offsetInCU: 0x21F6B, offset: 0x21F6B, size: 0x8, addend: 0x0, symName: __ZNSt3__117__compressed_pairIPNS_4pairIffEERNS_9allocatorIS2_EEEC2B7v160006IDnS6_EEOT_OT0_, symObjAddr: 0x94D8, symBinAddr: 0x10000B368, symSize: 0x48 }
  - { offsetInCU: 0x21FC3, offset: 0x21FC3, size: 0x8, addend: 0x0, symName: __ZNSt3__122__compressed_pair_elemIRNS_9allocatorINS_4pairIffEEEELi1ELb0EEC2B7v160006IS5_vEEOT_, symObjAddr: 0x9520, symBinAddr: 0x10000B3B0, symSize: 0x20 }
  - { offsetInCU: 0x22005, offset: 0x22005, size: 0x8, addend: 0x0, symName: __ZNSt3__19allocatorINS_4pairIffEEE8allocateB7v160006Em, symObjAddr: 0x9540, symBinAddr: 0x10000B3D0, symSize: 0x58 }
  - { offsetInCU: 0x22039, offset: 0x22039, size: 0x8, addend: 0x0, symName: __ZNSt3__117__compressed_pairIPNS_4pairIffEERNS_9allocatorIS2_EEE6secondB7v160006Ev, symObjAddr: 0x9598, symBinAddr: 0x10000B428, symSize: 0x28 }
  - { offsetInCU: 0x2205F, offset: 0x2205F, size: 0x8, addend: 0x0, symName: __ZNSt3__122__compressed_pair_elemIRNS_9allocatorINS_4pairIffEEEELi1ELb0EE5__getB7v160006Ev, symObjAddr: 0x95C0, symBinAddr: 0x10000B450, symSize: 0x18 }
  - { offsetInCU: 0x22085, offset: 0x22085, size: 0x8, addend: 0x0, symName: __ZNSt3__117__compressed_pairIPNS_4pairIffEERNS_9allocatorIS2_EEE5firstB7v160006Ev, symObjAddr: 0x95D8, symBinAddr: 0x10000B468, symSize: 0x24 }
  - { offsetInCU: 0x220AB, offset: 0x220AB, size: 0x8, addend: 0x0, symName: __ZNSt3__122__compressed_pair_elemIPNS_4pairIffEELi0ELb0EE5__getB7v160006Ev, symObjAddr: 0x95FC, symBinAddr: 0x10000B48C, symSize: 0x14 }
  - { offsetInCU: 0x220D1, offset: 0x220D1, size: 0x8, addend: 0x0, symName: __ZNSt3__116reverse_iteratorIPNS_4pairIffEEEC1B7v160006ES3_, symObjAddr: 0x973C, symBinAddr: 0x10000B5CC, symSize: 0x34 }
  - { offsetInCU: 0x22109, offset: 0x22109, size: 0x8, addend: 0x0, symName: __ZNKSt3__116reverse_iteratorIPNS_4pairIffEEE4baseB7v160006Ev, symObjAddr: 0x9770, symBinAddr: 0x10000B600, symSize: 0x18 }
  - { offsetInCU: 0x2212F, offset: 0x2212F, size: 0x8, addend: 0x0, symName: __ZNSt3__16vectorINS_4pairIffEENS_9allocatorIS2_EEE9__end_capB7v160006Ev, symObjAddr: 0x97C4, symBinAddr: 0x10000B654, symSize: 0x28 }
  - { offsetInCU: 0x22155, offset: 0x22155, size: 0x8, addend: 0x0, symName: __ZNKSt3__16vectorINS_4pairIffEENS_9allocatorIS2_EEE14__annotate_newB7v160006Em, symObjAddr: 0x97EC, symBinAddr: 0x10000B67C, symSize: 0xAC }
  - { offsetInCU: 0x2218A, offset: 0x2218A, size: 0x8, addend: 0x0, symName: __ZNSt3__129_AllocatorDestroyRangeReverseINS_9allocatorINS_4pairIffEEEENS_16reverse_iteratorIPS3_EEEC1B7v160006ERS4_RS7_SA_, symObjAddr: 0x98F4, symBinAddr: 0x10000B784, symSize: 0x44 }
  - { offsetInCU: 0x221E1, offset: 0x221E1, size: 0x8, addend: 0x0, symName: __ZNSt3__116allocator_traitsINS_9allocatorINS_4pairIffEEEEE9constructB7v160006IS3_JS3_EvEEvRS4_PT_DpOT0_, symObjAddr: 0x9980, symBinAddr: 0x10000B810, symSize: 0x34 }
  - { offsetInCU: 0x22238, offset: 0x22238, size: 0x8, addend: 0x0, symName: __ZNKSt3__116reverse_iteratorIPNS_4pairIffEEEdeB7v160006Ev, symObjAddr: 0x99D8, symBinAddr: 0x10000B868, symSize: 0x28 }
  - { offsetInCU: 0x2226C, offset: 0x2226C, size: 0x8, addend: 0x0, symName: __ZNSt3__116reverse_iteratorIPNS_4pairIffEEEppB7v160006Ev, symObjAddr: 0x9A00, symBinAddr: 0x10000B890, symSize: 0x20 }
  - { offsetInCU: 0x22292, offset: 0x22292, size: 0x8, addend: 0x0, symName: __ZNSt3__128__exception_guard_exceptionsINS_29_AllocatorDestroyRangeReverseINS_9allocatorINS_4pairIffEEEENS_16reverse_iteratorIPS4_EEEEE10__completeB7v160006Ev, symObjAddr: 0x9A20, symBinAddr: 0x10000B8B0, symSize: 0x1C }
  - { offsetInCU: 0x222B8, offset: 0x222B8, size: 0x8, addend: 0x0, symName: __ZNSt3__128__exception_guard_exceptionsINS_29_AllocatorDestroyRangeReverseINS_9allocatorINS_4pairIffEEEENS_16reverse_iteratorIPS4_EEEEED1B7v160006Ev, symObjAddr: 0x9A3C, symBinAddr: 0x10000B8CC, symSize: 0x2C }
  - { offsetInCU: 0x222E2, offset: 0x222E2, size: 0x8, addend: 0x0, symName: __ZNSt3__128__exception_guard_exceptionsINS_29_AllocatorDestroyRangeReverseINS_9allocatorINS_4pairIffEEEENS_16reverse_iteratorIPS4_EEEEEC1B7v160006ES9_, symObjAddr: 0x9A68, symBinAddr: 0x10000B8F8, symSize: 0x34 }
  - { offsetInCU: 0x2231B, offset: 0x2231B, size: 0x8, addend: 0x0, symName: __ZNSt3__128__exception_guard_exceptionsINS_29_AllocatorDestroyRangeReverseINS_9allocatorINS_4pairIffEEEENS_16reverse_iteratorIPS4_EEEEEC2B7v160006ES9_, symObjAddr: 0x9A9C, symBinAddr: 0x10000B92C, symSize: 0x30 }
  - { offsetInCU: 0x22354, offset: 0x22354, size: 0x8, addend: 0x0, symName: __ZNSt3__129_AllocatorDestroyRangeReverseINS_9allocatorINS_4pairIffEEEENS_16reverse_iteratorIPS3_EEEC2B7v160006ERS4_RS7_SA_, symObjAddr: 0x9ACC, symBinAddr: 0x10000B95C, symSize: 0x38 }
  - { offsetInCU: 0x223AB, offset: 0x223AB, size: 0x8, addend: 0x0, symName: __ZNSt3__19allocatorINS_4pairIffEEE9constructB7v160006IS2_JS2_EEEvPT_DpOT0_, symObjAddr: 0x9B04, symBinAddr: 0x10000B994, symSize: 0x28 }
  - { offsetInCU: 0x22406, offset: 0x22406, size: 0x8, addend: 0x0, symName: __ZNSt3__119__to_address_helperINS_16reverse_iteratorIPNS_4pairIffEEEEvE6__callB7v160006ERKS5_, symObjAddr: 0x9B2C, symBinAddr: 0x10000B9BC, symSize: 0x38 }
  - { offsetInCU: 0x22429, offset: 0x22429, size: 0x8, addend: 0x0, symName: __ZNKSt3__116reverse_iteratorIPNS_4pairIffEEEptB7v160006Ev, symObjAddr: 0x9B64, symBinAddr: 0x10000B9F4, symSize: 0x24 }
  - { offsetInCU: 0x2244F, offset: 0x2244F, size: 0x8, addend: 0x0, symName: __ZNSt3__128__exception_guard_exceptionsINS_29_AllocatorDestroyRangeReverseINS_9allocatorINS_4pairIffEEEENS_16reverse_iteratorIPS4_EEEEED2B7v160006Ev, symObjAddr: 0x9B88, symBinAddr: 0x10000BA18, symSize: 0x50 }
  - { offsetInCU: 0x22479, offset: 0x22479, size: 0x8, addend: 0x0, symName: __ZNKSt3__129_AllocatorDestroyRangeReverseINS_9allocatorINS_4pairIffEEEENS_16reverse_iteratorIPS3_EEEclB7v160006Ev, symObjAddr: 0x9BD8, symBinAddr: 0x10000BA68, symSize: 0xB4 }
  - { offsetInCU: 0x224A0, offset: 0x224A0, size: 0x8, addend: 0x0, symName: __ZNSt3__116reverse_iteratorINS0_IPNS_4pairIffEEEEEC1B7v160006ES4_, symObjAddr: 0x9CFC, symBinAddr: 0x10000BB8C, symSize: 0x3C }
  - { offsetInCU: 0x224D8, offset: 0x224D8, size: 0x8, addend: 0x0, symName: __ZNSt3__116reverse_iteratorINS0_IPNS_4pairIffEEEEEppB7v160006Ev, symObjAddr: 0x9DBC, symBinAddr: 0x10000BC4C, symSize: 0x30 }
  - { offsetInCU: 0x224FE, offset: 0x224FE, size: 0x8, addend: 0x0, symName: __ZNKSt3__116reverse_iteratorINS0_IPNS_4pairIffEEEEE4baseB7v160006Ev, symObjAddr: 0x9DEC, symBinAddr: 0x10000BC7C, symSize: 0x24 }
  - { offsetInCU: 0x22529, offset: 0x22529, size: 0x8, addend: 0x0, symName: __ZNSt3__119__to_address_helperINS_16reverse_iteratorINS1_IPNS_4pairIffEEEEEEvE6__callB7v160006ERKS6_, symObjAddr: 0x9E10, symBinAddr: 0x10000BCA0, symSize: 0x38 }
  - { offsetInCU: 0x2254C, offset: 0x2254C, size: 0x8, addend: 0x0, symName: __ZNKSt3__116reverse_iteratorINS0_IPNS_4pairIffEEEEEptB7v160006Ev, symObjAddr: 0x9E48, symBinAddr: 0x10000BCD8, symSize: 0x24 }
  - { offsetInCU: 0x22572, offset: 0x22572, size: 0x8, addend: 0x0, symName: __ZNKSt3__116reverse_iteratorINS0_IPNS_4pairIffEEEEEdeB7v160006Ev, symObjAddr: 0x9E6C, symBinAddr: 0x10000BCFC, symSize: 0x34 }
  - { offsetInCU: 0x225A6, offset: 0x225A6, size: 0x8, addend: 0x0, symName: __ZNSt3__116reverse_iteratorIPNS_4pairIffEEEmmB7v160006Ev, symObjAddr: 0x9EA0, symBinAddr: 0x10000BD30, symSize: 0x20 }
  - { offsetInCU: 0x225CC, offset: 0x225CC, size: 0x8, addend: 0x0, symName: __ZNSt3__116reverse_iteratorINS0_IPNS_4pairIffEEEEEC2B7v160006ES4_, symObjAddr: 0x9EC0, symBinAddr: 0x10000BD50, symSize: 0x2C }
  - { offsetInCU: 0x22604, offset: 0x22604, size: 0x8, addend: 0x0, symName: __ZNSt3__116reverse_iteratorIPNS_4pairIffEEEC2B7v160006ES3_, symObjAddr: 0x9EEC, symBinAddr: 0x10000BD7C, symSize: 0x28 }
  - { offsetInCU: 0x2263C, offset: 0x2263C, size: 0x8, addend: 0x0, symName: __ZNSt3__117__compressed_pairIPNS_4pairIffEENS_9allocatorIS2_EEE5firstB7v160006Ev, symObjAddr: 0x9F14, symBinAddr: 0x10000BDA4, symSize: 0x24 }
  - { offsetInCU: 0x22662, offset: 0x22662, size: 0x8, addend: 0x0, symName: __ZNSt3__114__split_bufferINS_4pairIffEERNS_9allocatorIS2_EEED2Ev, symObjAddr: 0x9F38, symBinAddr: 0x10000BDC8, symSize: 0x8C }
  - { offsetInCU: 0x2268E, offset: 0x2268E, size: 0x8, addend: 0x0, symName: __ZNSt3__114__split_bufferINS_4pairIffEERNS_9allocatorIS2_EEE5clearB7v160006Ev, symObjAddr: 0x9FC4, symBinAddr: 0x10000BE54, symSize: 0x28 }
  - { offsetInCU: 0x226B4, offset: 0x226B4, size: 0x8, addend: 0x0, symName: __ZNKSt3__114__split_bufferINS_4pairIffEERNS_9allocatorIS2_EEE8capacityB7v160006Ev, symObjAddr: 0x9FEC, symBinAddr: 0x10000BE7C, symSize: 0x40 }
  - { offsetInCU: 0x226DA, offset: 0x226DA, size: 0x8, addend: 0x0, symName: __ZNSt3__114__split_bufferINS_4pairIffEERNS_9allocatorIS2_EEE17__destruct_at_endB7v160006EPS2_, symObjAddr: 0xA02C, symBinAddr: 0x10000BEBC, symSize: 0x2C }
  - { offsetInCU: 0x2270E, offset: 0x2270E, size: 0x8, addend: 0x0, symName: __ZNSt3__114__split_bufferINS_4pairIffEERNS_9allocatorIS2_EEE17__destruct_at_endB7v160006EPS2_NS_17integral_constantIbLb0EEE, symObjAddr: 0xA058, symBinAddr: 0x10000BEE8, symSize: 0x80 }
  - { offsetInCU: 0x2274F, offset: 0x2274F, size: 0x8, addend: 0x0, symName: __ZNKSt3__114__split_bufferINS_4pairIffEERNS_9allocatorIS2_EEE9__end_capB7v160006Ev, symObjAddr: 0xA0D8, symBinAddr: 0x10000BF68, symSize: 0x28 }
  - { offsetInCU: 0x22775, offset: 0x22775, size: 0x8, addend: 0x0, symName: __ZNKSt3__117__compressed_pairIPNS_4pairIffEERNS_9allocatorIS2_EEE5firstB7v160006Ev, symObjAddr: 0xA100, symBinAddr: 0x10000BF90, symSize: 0x24 }
  - { offsetInCU: 0x2279B, offset: 0x2279B, size: 0x8, addend: 0x0, symName: __ZNSt3__110__get_pairILm0EE3getB7v160006ImmEEOT_ONS_4pairIS3_T0_EE, symObjAddr: 0xA16C, symBinAddr: 0x10000BFFC, symSize: 0x14 }
  - { offsetInCU: 0x227D1, offset: 0x227D1, size: 0x8, addend: 0x0, symName: __ZNSt3__110__get_pairILm1EE3getB7v160006ImmEEOT0_ONS_4pairIT_S3_EE, symObjAddr: 0xA180, symBinAddr: 0x10000C010, symSize: 0x18 }
  - { offsetInCU: 0x22807, offset: 0x22807, size: 0x8, addend: 0x0, symName: __ZNSt3__16vectorIfNS_9allocatorIfEEEC2EmRKf, symObjAddr: 0xA198, symBinAddr: 0x10000C028, symSize: 0xE8 }
  - { offsetInCU: 0x22866, offset: 0x22866, size: 0x8, addend: 0x0, symName: __ZNSt3__117__compressed_pairIPfNS_9allocatorIfEEEC1B7v160006IDnNS_18__default_init_tagEEEOT_OT0_, symObjAddr: 0xA280, symBinAddr: 0x10000C110, symSize: 0x3C }
  - { offsetInCU: 0x228BE, offset: 0x228BE, size: 0x8, addend: 0x0, symName: __ZNSt3__16vectorIfNS_9allocatorIfEEE16__destroy_vectorC1ERS3_, symObjAddr: 0xA2FC, symBinAddr: 0x10000C18C, symSize: 0x34 }
  - { offsetInCU: 0x228F7, offset: 0x228F7, size: 0x8, addend: 0x0, symName: __ZNSt3__16vectorIfNS_9allocatorIfEEE11__vallocateB7v160006Em, symObjAddr: 0xA340, symBinAddr: 0x10000C1D0, symSize: 0xAC }
  - { offsetInCU: 0x2293B, offset: 0x2293B, size: 0x8, addend: 0x0, symName: __ZNSt3__16vectorIfNS_9allocatorIfEEE18__construct_at_endEmRKf, symObjAddr: 0xA3EC, symBinAddr: 0x10000C27C, symSize: 0xD0 }
  - { offsetInCU: 0x229BC, offset: 0x229BC, size: 0x8, addend: 0x0, symName: __ZNSt3__128__exception_guard_exceptionsINS_6vectorIfNS_9allocatorIfEEE16__destroy_vectorEE10__completeB7v160006Ev, symObjAddr: 0xA4BC, symBinAddr: 0x10000C34C, symSize: 0x1C }
  - { offsetInCU: 0x229E2, offset: 0x229E2, size: 0x8, addend: 0x0, symName: __ZNSt3__128__exception_guard_exceptionsINS_6vectorIfNS_9allocatorIfEEE16__destroy_vectorEED1B7v160006Ev, symObjAddr: 0xA4D8, symBinAddr: 0x10000C368, symSize: 0x2C }
  - { offsetInCU: 0x22A0C, offset: 0x22A0C, size: 0x8, addend: 0x0, symName: __ZNSt3__117__compressed_pairIPfNS_9allocatorIfEEEC2B7v160006IDnNS_18__default_init_tagEEEOT_OT0_, symObjAddr: 0xA504, symBinAddr: 0x10000C394, symSize: 0x40 }
  - { offsetInCU: 0x22A64, offset: 0x22A64, size: 0x8, addend: 0x0, symName: __ZNSt3__122__compressed_pair_elemIPfLi0ELb0EEC2B7v160006IDnvEEOT_, symObjAddr: 0xA544, symBinAddr: 0x10000C3D4, symSize: 0x1C }
  - { offsetInCU: 0x22AA6, offset: 0x22AA6, size: 0x8, addend: 0x0, symName: __ZNSt3__122__compressed_pair_elemINS_9allocatorIfEELi1ELb1EEC2B7v160006ENS_18__default_init_tagE, symObjAddr: 0xA560, symBinAddr: 0x10000C3F0, symSize: 0x2C }
  - { offsetInCU: 0x22ADB, offset: 0x22ADB, size: 0x8, addend: 0x0, symName: __ZNSt3__19allocatorIfEC2B7v160006Ev, symObjAddr: 0xA58C, symBinAddr: 0x10000C41C, symSize: 0x2C }
  - { offsetInCU: 0x22B05, offset: 0x22B05, size: 0x8, addend: 0x0, symName: __ZNSt3__116__non_trivial_ifILb1ENS_9allocatorIfEEEC2B7v160006Ev, symObjAddr: 0xA5B8, symBinAddr: 0x10000C448, symSize: 0x14 }
  - { offsetInCU: 0x22B2F, offset: 0x22B2F, size: 0x8, addend: 0x0, symName: __ZNSt3__128__exception_guard_exceptionsINS_6vectorIfNS_9allocatorIfEEE16__destroy_vectorEEC1B7v160006ES5_, symObjAddr: 0xA5CC, symBinAddr: 0x10000C45C, symSize: 0x34 }
  - { offsetInCU: 0x22B67, offset: 0x22B67, size: 0x8, addend: 0x0, symName: __ZNSt3__128__exception_guard_exceptionsINS_6vectorIfNS_9allocatorIfEEE16__destroy_vectorEEC2B7v160006ES5_, symObjAddr: 0xA600, symBinAddr: 0x10000C490, symSize: 0x24 }
  - { offsetInCU: 0x22B9F, offset: 0x22B9F, size: 0x8, addend: 0x0, symName: __ZNSt3__16vectorIfNS_9allocatorIfEEE16__destroy_vectorC2ERS3_, symObjAddr: 0xA624, symBinAddr: 0x10000C4B4, symSize: 0x20 }
  - { offsetInCU: 0x22BD8, offset: 0x22BD8, size: 0x8, addend: 0x0, symName: __ZNKSt3__16vectorIfNS_9allocatorIfEEE8max_sizeEv, symObjAddr: 0xA644, symBinAddr: 0x10000C4D4, symSize: 0x60 }
  - { offsetInCU: 0x22C00, offset: 0x22C00, size: 0x8, addend: 0x0, symName: __ZNKSt3__16vectorIfNS_9allocatorIfEEE20__throw_length_errorB7v160006Ev, symObjAddr: 0xA6A4, symBinAddr: 0x10000C534, symSize: 0x1C }
  - { offsetInCU: 0x22C26, offset: 0x22C26, size: 0x8, addend: 0x0, symName: __ZNSt3__16vectorIfNS_9allocatorIfEEE7__allocB7v160006Ev, symObjAddr: 0xA700, symBinAddr: 0x10000C590, symSize: 0x28 }
  - { offsetInCU: 0x22C4C, offset: 0x22C4C, size: 0x8, addend: 0x0, symName: __ZNSt3__16vectorIfNS_9allocatorIfEEE9__end_capB7v160006Ev, symObjAddr: 0xA728, symBinAddr: 0x10000C5B8, symSize: 0x28 }
  - { offsetInCU: 0x22C72, offset: 0x22C72, size: 0x8, addend: 0x0, symName: __ZNKSt3__16vectorIfNS_9allocatorIfEEE14__annotate_newB7v160006Em, symObjAddr: 0xA750, symBinAddr: 0x10000C5E0, symSize: 0xAC }
  - { offsetInCU: 0x22CB1, offset: 0x22CB1, size: 0x8, addend: 0x0, symName: __ZNSt3__116allocator_traitsINS_9allocatorIfEEE8max_sizeB7v160006IS2_vEEmRKS2_, symObjAddr: 0xA7FC, symBinAddr: 0x10000C68C, symSize: 0x24 }
  - { offsetInCU: 0x22CDF, offset: 0x22CDF, size: 0x8, addend: 0x0, symName: __ZNKSt3__16vectorIfNS_9allocatorIfEEE7__allocB7v160006Ev, symObjAddr: 0xA820, symBinAddr: 0x10000C6B0, symSize: 0x28 }
  - { offsetInCU: 0x22D05, offset: 0x22D05, size: 0x8, addend: 0x0, symName: __ZNKSt3__19allocatorIfE8max_sizeB7v160006Ev, symObjAddr: 0xA848, symBinAddr: 0x10000C6D8, symSize: 0x14 }
  - { offsetInCU: 0x22D2B, offset: 0x22D2B, size: 0x8, addend: 0x0, symName: __ZNKSt3__117__compressed_pairIPfNS_9allocatorIfEEE6secondB7v160006Ev, symObjAddr: 0xA85C, symBinAddr: 0x10000C6EC, symSize: 0x24 }
  - { offsetInCU: 0x22D51, offset: 0x22D51, size: 0x8, addend: 0x0, symName: __ZNKSt3__122__compressed_pair_elemINS_9allocatorIfEELi1ELb1EE5__getB7v160006Ev, symObjAddr: 0xA880, symBinAddr: 0x10000C710, symSize: 0x14 }
  - { offsetInCU: 0x22D77, offset: 0x22D77, size: 0x8, addend: 0x0, symName: __ZNSt3__19allocatorIfE8allocateB7v160006Em, symObjAddr: 0xA894, symBinAddr: 0x10000C724, symSize: 0x58 }
  - { offsetInCU: 0x22DAB, offset: 0x22DAB, size: 0x8, addend: 0x0, symName: __ZNSt3__117__compressed_pairIPfNS_9allocatorIfEEE6secondB7v160006Ev, symObjAddr: 0xA8EC, symBinAddr: 0x10000C77C, symSize: 0x24 }
  - { offsetInCU: 0x22DD1, offset: 0x22DD1, size: 0x8, addend: 0x0, symName: __ZNSt3__122__compressed_pair_elemINS_9allocatorIfEELi1ELb1EE5__getB7v160006Ev, symObjAddr: 0xA910, symBinAddr: 0x10000C7A0, symSize: 0x14 }
  - { offsetInCU: 0x22DF7, offset: 0x22DF7, size: 0x8, addend: 0x0, symName: __ZNSt3__117__compressed_pairIPfNS_9allocatorIfEEE5firstB7v160006Ev, symObjAddr: 0xA924, symBinAddr: 0x10000C7B4, symSize: 0x24 }
  - { offsetInCU: 0x22E1D, offset: 0x22E1D, size: 0x8, addend: 0x0, symName: __ZNSt3__122__compressed_pair_elemIPfLi0ELb0EE5__getB7v160006Ev, symObjAddr: 0xA948, symBinAddr: 0x10000C7D8, symSize: 0x14 }
  - { offsetInCU: 0x22E43, offset: 0x22E43, size: 0x8, addend: 0x0, symName: __ZNKSt3__16vectorIfNS_9allocatorIfEEE31__annotate_contiguous_containerB7v160006EPKvS5_S5_S5_, symObjAddr: 0xA95C, symBinAddr: 0x10000C7EC, symSize: 0x20 }
  - { offsetInCU: 0x22E95, offset: 0x22E95, size: 0x8, addend: 0x0, symName: __ZNKSt3__16vectorIfNS_9allocatorIfEEE4dataB7v160006Ev, symObjAddr: 0xA97C, symBinAddr: 0x10000C80C, symSize: 0x28 }
  - { offsetInCU: 0x22EBB, offset: 0x22EBB, size: 0x8, addend: 0x0, symName: __ZNKSt3__16vectorIfNS_9allocatorIfEEE8capacityB7v160006Ev, symObjAddr: 0xA9A4, symBinAddr: 0x10000C834, symSize: 0x40 }
  - { offsetInCU: 0x22EE1, offset: 0x22EE1, size: 0x8, addend: 0x0, symName: __ZNKSt3__16vectorIfNS_9allocatorIfEEE9__end_capB7v160006Ev, symObjAddr: 0xA9F8, symBinAddr: 0x10000C888, symSize: 0x28 }
  - { offsetInCU: 0x22F07, offset: 0x22F07, size: 0x8, addend: 0x0, symName: __ZNKSt3__117__compressed_pairIPfNS_9allocatorIfEEE5firstB7v160006Ev, symObjAddr: 0xAA20, symBinAddr: 0x10000C8B0, symSize: 0x24 }
  - { offsetInCU: 0x22F2D, offset: 0x22F2D, size: 0x8, addend: 0x0, symName: __ZNKSt3__122__compressed_pair_elemIPfLi0ELb0EE5__getB7v160006Ev, symObjAddr: 0xAA44, symBinAddr: 0x10000C8D4, symSize: 0x14 }
  - { offsetInCU: 0x22F6C, offset: 0x22F6C, size: 0x8, addend: 0x0, symName: __ZNSt3__16vectorIfNS_9allocatorIfEEE21_ConstructTransactionC1B7v160006ERS3_m, symObjAddr: 0xAA58, symBinAddr: 0x10000C8E8, symSize: 0x3C }
  - { offsetInCU: 0x22FB4, offset: 0x22FB4, size: 0x8, addend: 0x0, symName: __ZNSt3__116allocator_traitsINS_9allocatorIfEEE9constructB7v160006IfJRKfEvEEvRS2_PT_DpOT0_, symObjAddr: 0xAA94, symBinAddr: 0x10000C924, symSize: 0x34 }
  - { offsetInCU: 0x2300B, offset: 0x2300B, size: 0x8, addend: 0x0, symName: __ZNSt3__16vectorIfNS_9allocatorIfEEE21_ConstructTransactionD1B7v160006Ev, symObjAddr: 0xAAC8, symBinAddr: 0x10000C958, symSize: 0x2C }
  - { offsetInCU: 0x23035, offset: 0x23035, size: 0x8, addend: 0x0, symName: __ZNSt3__16vectorIfNS_9allocatorIfEEE21_ConstructTransactionC2B7v160006ERS3_m, symObjAddr: 0xAAF4, symBinAddr: 0x10000C984, symSize: 0x44 }
  - { offsetInCU: 0x2307D, offset: 0x2307D, size: 0x8, addend: 0x0, symName: __ZNSt3__19allocatorIfE9constructB7v160006IfJRKfEEEvPT_DpOT0_, symObjAddr: 0xAB38, symBinAddr: 0x10000C9C8, symSize: 0x28 }
  - { offsetInCU: 0x230D3, offset: 0x230D3, size: 0x8, addend: 0x0, symName: __ZNSt3__16vectorIfNS_9allocatorIfEEE21_ConstructTransactionD2B7v160006Ev, symObjAddr: 0xAB60, symBinAddr: 0x10000C9F0, symSize: 0x20 }
  - { offsetInCU: 0x230FD, offset: 0x230FD, size: 0x8, addend: 0x0, symName: __ZNSt3__128__exception_guard_exceptionsINS_6vectorIfNS_9allocatorIfEEE16__destroy_vectorEED2B7v160006Ev, symObjAddr: 0xAB80, symBinAddr: 0x10000CA10, symSize: 0x50 }
  - { offsetInCU: 0x23127, offset: 0x23127, size: 0x8, addend: 0x0, symName: __ZNSt3__16vectorIfNS_9allocatorIfEEE16__destroy_vectorclB7v160006Ev, symObjAddr: 0xABD0, symBinAddr: 0x10000CA60, symSize: 0x9C }
  - { offsetInCU: 0x2314D, offset: 0x2314D, size: 0x8, addend: 0x0, symName: __ZNKSt3__16vectorIfNS_9allocatorIfEEE17__annotate_deleteB7v160006Ev, symObjAddr: 0xAC6C, symBinAddr: 0x10000CAFC, symSize: 0xB8 }
  - { offsetInCU: 0x23173, offset: 0x23173, size: 0x8, addend: 0x0, symName: __ZNSt3__16vectorIfNS_9allocatorIfEEE7__clearB7v160006Ev, symObjAddr: 0xAD34, symBinAddr: 0x10000CBC4, symSize: 0x28 }
  - { offsetInCU: 0x23199, offset: 0x23199, size: 0x8, addend: 0x0, symName: __ZNSt3__116allocator_traitsINS_9allocatorIfEEE10deallocateB7v160006ERS2_Pfm, symObjAddr: 0xAD5C, symBinAddr: 0x10000CBEC, symSize: 0x34 }
  - { offsetInCU: 0x231DB, offset: 0x231DB, size: 0x8, addend: 0x0, symName: __ZNSt3__16vectorIfNS_9allocatorIfEEE22__base_destruct_at_endB7v160006EPf, symObjAddr: 0xAD90, symBinAddr: 0x10000CC20, symSize: 0x8C }
  - { offsetInCU: 0x2321F, offset: 0x2321F, size: 0x8, addend: 0x0, symName: __ZNSt3__116allocator_traitsINS_9allocatorIfEEE7destroyB7v160006IfvEEvRS2_PT_, symObjAddr: 0xAE1C, symBinAddr: 0x10000CCAC, symSize: 0x2C }
  - { offsetInCU: 0x2325C, offset: 0x2325C, size: 0x8, addend: 0x0, symName: __ZNSt3__19allocatorIfE7destroyB7v160006EPf, symObjAddr: 0xAE48, symBinAddr: 0x10000CCD8, symSize: 0x14 }
  - { offsetInCU: 0x23290, offset: 0x23290, size: 0x8, addend: 0x0, symName: __ZNSt3__19allocatorIfE10deallocateB7v160006EPfm, symObjAddr: 0xAE5C, symBinAddr: 0x10000CCEC, symSize: 0x40 }
  - { offsetInCU: 0x232D2, offset: 0x232D2, size: 0x8, addend: 0x0, symName: __ZNSt3__16vectorIfNS_9allocatorIfEEED2B7v160006Ev, symObjAddr: 0xAE9C, symBinAddr: 0x10000CD2C, symSize: 0x44 }
  - { offsetInCU: 0x232FC, offset: 0x232FC, size: 0x8, addend: 0x0, symName: __ZNSt3__16vectorINS0_IfNS_9allocatorIfEEEENS1_IS3_EEEC2EmRKS3_, symObjAddr: 0xAEE0, symBinAddr: 0x10000CD70, symSize: 0xE8 }
  - { offsetInCU: 0x2335B, offset: 0x2335B, size: 0x8, addend: 0x0, symName: __ZNSt3__117__compressed_pairIPNS_6vectorIfNS_9allocatorIfEEEENS2_IS4_EEEC1B7v160006IDnNS_18__default_init_tagEEEOT_OT0_, symObjAddr: 0xAFC8, symBinAddr: 0x10000CE58, symSize: 0x3C }
  - { offsetInCU: 0x233B3, offset: 0x233B3, size: 0x8, addend: 0x0, symName: __ZNSt3__16vectorINS0_IfNS_9allocatorIfEEEENS1_IS3_EEE11__vallocateB7v160006Em, symObjAddr: 0xB054, symBinAddr: 0x10000CEE4, symSize: 0xB4 }
  - { offsetInCU: 0x233F7, offset: 0x233F7, size: 0x8, addend: 0x0, symName: __ZNSt3__16vectorINS0_IfNS_9allocatorIfEEEENS1_IS3_EEE18__construct_at_endEmRKS3_, symObjAddr: 0xB108, symBinAddr: 0x10000CF98, symSize: 0xD0 }
  - { offsetInCU: 0x23478, offset: 0x23478, size: 0x8, addend: 0x0, symName: __ZNSt3__128__exception_guard_exceptionsINS_6vectorINS1_IfNS_9allocatorIfEEEENS2_IS4_EEE16__destroy_vectorEE10__completeB7v160006Ev, symObjAddr: 0xB1D8, symBinAddr: 0x10000D068, symSize: 0x1C }
  - { offsetInCU: 0x2349E, offset: 0x2349E, size: 0x8, addend: 0x0, symName: __ZNSt3__128__exception_guard_exceptionsINS_6vectorINS1_IfNS_9allocatorIfEEEENS2_IS4_EEE16__destroy_vectorEED1B7v160006Ev, symObjAddr: 0xB1F4, symBinAddr: 0x10000D084, symSize: 0x2C }
  - { offsetInCU: 0x234C8, offset: 0x234C8, size: 0x8, addend: 0x0, symName: __ZNSt3__117__compressed_pairIPNS_6vectorIfNS_9allocatorIfEEEENS2_IS4_EEEC2B7v160006IDnNS_18__default_init_tagEEEOT_OT0_, symObjAddr: 0xB220, symBinAddr: 0x10000D0B0, symSize: 0x40 }
  - { offsetInCU: 0x23520, offset: 0x23520, size: 0x8, addend: 0x0, symName: __ZNSt3__122__compressed_pair_elemIPNS_6vectorIfNS_9allocatorIfEEEELi0ELb0EEC2B7v160006IDnvEEOT_, symObjAddr: 0xB260, symBinAddr: 0x10000D0F0, symSize: 0x1C }
  - { offsetInCU: 0x23562, offset: 0x23562, size: 0x8, addend: 0x0, symName: __ZNSt3__122__compressed_pair_elemINS_9allocatorINS_6vectorIfNS1_IfEEEEEELi1ELb1EEC2B7v160006ENS_18__default_init_tagE, symObjAddr: 0xB27C, symBinAddr: 0x10000D10C, symSize: 0x2C }
  - { offsetInCU: 0x23597, offset: 0x23597, size: 0x8, addend: 0x0, symName: __ZNSt3__19allocatorINS_6vectorIfNS0_IfEEEEEC2B7v160006Ev, symObjAddr: 0xB2A8, symBinAddr: 0x10000D138, symSize: 0x2C }
  - { offsetInCU: 0x235C1, offset: 0x235C1, size: 0x8, addend: 0x0, symName: __ZNSt3__116__non_trivial_ifILb1ENS_9allocatorINS_6vectorIfNS1_IfEEEEEEEC2B7v160006Ev, symObjAddr: 0xB2D4, symBinAddr: 0x10000D164, symSize: 0x14 }
  - { offsetInCU: 0x235EB, offset: 0x235EB, size: 0x8, addend: 0x0, symName: __ZNSt3__128__exception_guard_exceptionsINS_6vectorINS1_IfNS_9allocatorIfEEEENS2_IS4_EEE16__destroy_vectorEEC1B7v160006ES7_, symObjAddr: 0xB2E8, symBinAddr: 0x10000D178, symSize: 0x34 }
  - { offsetInCU: 0x23623, offset: 0x23623, size: 0x8, addend: 0x0, symName: __ZNSt3__128__exception_guard_exceptionsINS_6vectorINS1_IfNS_9allocatorIfEEEENS2_IS4_EEE16__destroy_vectorEEC2B7v160006ES7_, symObjAddr: 0xB31C, symBinAddr: 0x10000D1AC, symSize: 0x24 }
  - { offsetInCU: 0x2365B, offset: 0x2365B, size: 0x8, addend: 0x0, symName: __ZNKSt3__16vectorINS0_IfNS_9allocatorIfEEEENS1_IS3_EEE8max_sizeEv, symObjAddr: 0xB340, symBinAddr: 0x10000D1D0, symSize: 0x60 }
  - { offsetInCU: 0x23683, offset: 0x23683, size: 0x8, addend: 0x0, symName: __ZNKSt3__16vectorINS0_IfNS_9allocatorIfEEEENS1_IS3_EEE20__throw_length_errorB7v160006Ev, symObjAddr: 0xB3A0, symBinAddr: 0x10000D230, symSize: 0x1C }
  - { offsetInCU: 0x236A9, offset: 0x236A9, size: 0x8, addend: 0x0, symName: __ZNSt3__16vectorINS0_IfNS_9allocatorIfEEEENS1_IS3_EEE9__end_capB7v160006Ev, symObjAddr: 0xB3FC, symBinAddr: 0x10000D28C, symSize: 0x28 }
  - { offsetInCU: 0x236CF, offset: 0x236CF, size: 0x8, addend: 0x0, symName: __ZNKSt3__16vectorINS0_IfNS_9allocatorIfEEEENS1_IS3_EEE14__annotate_newB7v160006Em, symObjAddr: 0xB424, symBinAddr: 0x10000D2B4, symSize: 0xC8 }
  - { offsetInCU: 0x2370E, offset: 0x2370E, size: 0x8, addend: 0x0, symName: __ZNSt3__116allocator_traitsINS_9allocatorINS_6vectorIfNS1_IfEEEEEEE8max_sizeB7v160006IS5_vEEmRKS5_, symObjAddr: 0xB4EC, symBinAddr: 0x10000D37C, symSize: 0x24 }
  - { offsetInCU: 0x2373C, offset: 0x2373C, size: 0x8, addend: 0x0, symName: __ZNKSt3__16vectorINS0_IfNS_9allocatorIfEEEENS1_IS3_EEE7__allocB7v160006Ev, symObjAddr: 0xB510, symBinAddr: 0x10000D3A0, symSize: 0x28 }
  - { offsetInCU: 0x23762, offset: 0x23762, size: 0x8, addend: 0x0, symName: __ZNKSt3__19allocatorINS_6vectorIfNS0_IfEEEEE8max_sizeB7v160006Ev, symObjAddr: 0xB538, symBinAddr: 0x10000D3C8, symSize: 0x18 }
  - { offsetInCU: 0x23788, offset: 0x23788, size: 0x8, addend: 0x0, symName: __ZNKSt3__117__compressed_pairIPNS_6vectorIfNS_9allocatorIfEEEENS2_IS4_EEE6secondB7v160006Ev, symObjAddr: 0xB550, symBinAddr: 0x10000D3E0, symSize: 0x24 }
  - { offsetInCU: 0x237AE, offset: 0x237AE, size: 0x8, addend: 0x0, symName: __ZNKSt3__122__compressed_pair_elemINS_9allocatorINS_6vectorIfNS1_IfEEEEEELi1ELb1EE5__getB7v160006Ev, symObjAddr: 0xB574, symBinAddr: 0x10000D404, symSize: 0x14 }
  - { offsetInCU: 0x237D4, offset: 0x237D4, size: 0x8, addend: 0x0, symName: __ZNSt3__19allocatorINS_6vectorIfNS0_IfEEEEE8allocateB7v160006Em, symObjAddr: 0xB588, symBinAddr: 0x10000D418, symSize: 0x5C }
  - { offsetInCU: 0x23808, offset: 0x23808, size: 0x8, addend: 0x0, symName: __ZNSt3__117__compressed_pairIPNS_6vectorIfNS_9allocatorIfEEEENS2_IS4_EEE5firstB7v160006Ev, symObjAddr: 0xB5E4, symBinAddr: 0x10000D474, symSize: 0x24 }
  - { offsetInCU: 0x2382E, offset: 0x2382E, size: 0x8, addend: 0x0, symName: __ZNSt3__122__compressed_pair_elemIPNS_6vectorIfNS_9allocatorIfEEEELi0ELb0EE5__getB7v160006Ev, symObjAddr: 0xB608, symBinAddr: 0x10000D498, symSize: 0x14 }
  - { offsetInCU: 0x2386D, offset: 0x2386D, size: 0x8, addend: 0x0, symName: __ZNSt3__16vectorINS0_IfNS_9allocatorIfEEEENS1_IS3_EEE21_ConstructTransactionC1B7v160006ERS5_m, symObjAddr: 0xB61C, symBinAddr: 0x10000D4AC, symSize: 0x3C }
  - { offsetInCU: 0x238B5, offset: 0x238B5, size: 0x8, addend: 0x0, symName: __ZNSt3__116allocator_traitsINS_9allocatorINS_6vectorIfNS1_IfEEEEEEE9constructB7v160006IS4_JRKS4_EvEEvRS5_PT_DpOT0_, symObjAddr: 0xB658, symBinAddr: 0x10000D4E8, symSize: 0x34 }
  - { offsetInCU: 0x2390C, offset: 0x2390C, size: 0x8, addend: 0x0, symName: __ZNSt3__16vectorINS0_IfNS_9allocatorIfEEEENS1_IS3_EEE21_ConstructTransactionD1B7v160006Ev, symObjAddr: 0xB68C, symBinAddr: 0x10000D51C, symSize: 0x2C }
  - { offsetInCU: 0x23936, offset: 0x23936, size: 0x8, addend: 0x0, symName: __ZNSt3__16vectorINS0_IfNS_9allocatorIfEEEENS1_IS3_EEE21_ConstructTransactionC2B7v160006ERS5_m, symObjAddr: 0xB6B8, symBinAddr: 0x10000D548, symSize: 0x4C }
  - { offsetInCU: 0x2397E, offset: 0x2397E, size: 0x8, addend: 0x0, symName: __ZNSt3__19allocatorINS_6vectorIfNS0_IfEEEEE9constructB7v160006IS3_JRKS3_EEEvPT_DpOT0_, symObjAddr: 0xB704, symBinAddr: 0x10000D594, symSize: 0x30 }
  - { offsetInCU: 0x239D4, offset: 0x239D4, size: 0x8, addend: 0x0, symName: __ZNSt3__16vectorIfNS_9allocatorIfEEEC1ERKS3_, symObjAddr: 0xB734, symBinAddr: 0x10000D5C4, symSize: 0x34 }
  - { offsetInCU: 0x23A0F, offset: 0x23A0F, size: 0x8, addend: 0x0, symName: __ZNSt3__16vectorIfNS_9allocatorIfEEEC2ERKS3_, symObjAddr: 0xB768, symBinAddr: 0x10000D5F8, symSize: 0x110 }
  - { offsetInCU: 0x23A6E, offset: 0x23A6E, size: 0x8, addend: 0x0, symName: __ZNSt3__116allocator_traitsINS_9allocatorIfEEE37select_on_container_copy_constructionB7v160006IS2_vvEES2_RKS2_, symObjAddr: 0xB878, symBinAddr: 0x10000D708, symSize: 0x10 }
  - { offsetInCU: 0x23AA3, offset: 0x23AA3, size: 0x8, addend: 0x0, symName: __ZNSt3__117__compressed_pairIPfNS_9allocatorIfEEEC1B7v160006IDnS3_EEOT_OT0_, symObjAddr: 0xB888, symBinAddr: 0x10000D718, symSize: 0x3C }
  - { offsetInCU: 0x23AFB, offset: 0x23AFB, size: 0x8, addend: 0x0, symName: __ZNSt3__16vectorIfNS_9allocatorIfEEE18__construct_at_endIPfLi0EEEvT_S6_m, symObjAddr: 0xB8C4, symBinAddr: 0x10000D754, symSize: 0x8C }
  - { offsetInCU: 0x23B6E, offset: 0x23B6E, size: 0x8, addend: 0x0, symName: __ZNSt3__117__compressed_pairIPfNS_9allocatorIfEEEC2B7v160006IDnS3_EEOT_OT0_, symObjAddr: 0xB950, symBinAddr: 0x10000D7E0, symSize: 0x44 }
  - { offsetInCU: 0x23BC6, offset: 0x23BC6, size: 0x8, addend: 0x0, symName: __ZNSt3__122__compressed_pair_elemINS_9allocatorIfEELi1ELb1EEC2B7v160006IS2_vEEOT_, symObjAddr: 0xB994, symBinAddr: 0x10000D824, symSize: 0x18 }
  - { offsetInCU: 0x23C08, offset: 0x23C08, size: 0x8, addend: 0x0, symName: __ZNSt3__129_AllocatorDestroyRangeReverseINS_9allocatorIfEEPfEC1B7v160006ERS2_RS3_S6_, symObjAddr: 0xBAEC, symBinAddr: 0x10000D97C, symSize: 0x44 }
  - { offsetInCU: 0x23C5F, offset: 0x23C5F, size: 0x8, addend: 0x0, symName: __ZNSt3__116allocator_traitsINS_9allocatorIfEEE9constructB7v160006IfJRfEvEEvRS2_PT_DpOT0_, symObjAddr: 0xBB30, symBinAddr: 0x10000D9C0, symSize: 0x34 }
  - { offsetInCU: 0x23CB6, offset: 0x23CB6, size: 0x8, addend: 0x0, symName: __ZNSt3__128__exception_guard_exceptionsINS_29_AllocatorDestroyRangeReverseINS_9allocatorIfEEPfEEE10__completeB7v160006Ev, symObjAddr: 0xBB64, symBinAddr: 0x10000D9F4, symSize: 0x1C }
  - { offsetInCU: 0x23CDC, offset: 0x23CDC, size: 0x8, addend: 0x0, symName: __ZNSt3__128__exception_guard_exceptionsINS_29_AllocatorDestroyRangeReverseINS_9allocatorIfEEPfEEED1B7v160006Ev, symObjAddr: 0xBB80, symBinAddr: 0x10000DA10, symSize: 0x2C }
  - { offsetInCU: 0x23D06, offset: 0x23D06, size: 0x8, addend: 0x0, symName: __ZNSt3__128__exception_guard_exceptionsINS_29_AllocatorDestroyRangeReverseINS_9allocatorIfEEPfEEEC1B7v160006ES5_, symObjAddr: 0xBBAC, symBinAddr: 0x10000DA3C, symSize: 0x34 }
  - { offsetInCU: 0x23D3F, offset: 0x23D3F, size: 0x8, addend: 0x0, symName: __ZNSt3__128__exception_guard_exceptionsINS_29_AllocatorDestroyRangeReverseINS_9allocatorIfEEPfEEEC2B7v160006ES5_, symObjAddr: 0xBBE0, symBinAddr: 0x10000DA70, symSize: 0x30 }
  - { offsetInCU: 0x23D78, offset: 0x23D78, size: 0x8, addend: 0x0, symName: __ZNSt3__129_AllocatorDestroyRangeReverseINS_9allocatorIfEEPfEC2B7v160006ERS2_RS3_S6_, symObjAddr: 0xBC10, symBinAddr: 0x10000DAA0, symSize: 0x38 }
  - { offsetInCU: 0x23DCF, offset: 0x23DCF, size: 0x8, addend: 0x0, symName: __ZNSt3__19allocatorIfE9constructB7v160006IfJRfEEEvPT_DpOT0_, symObjAddr: 0xBC48, symBinAddr: 0x10000DAD8, symSize: 0x28 }
  - { offsetInCU: 0x23E25, offset: 0x23E25, size: 0x8, addend: 0x0, symName: __ZNSt3__128__exception_guard_exceptionsINS_29_AllocatorDestroyRangeReverseINS_9allocatorIfEEPfEEED2B7v160006Ev, symObjAddr: 0xBC70, symBinAddr: 0x10000DB00, symSize: 0x50 }
  - { offsetInCU: 0x23E4F, offset: 0x23E4F, size: 0x8, addend: 0x0, symName: __ZNKSt3__129_AllocatorDestroyRangeReverseINS_9allocatorIfEEPfEclB7v160006Ev, symObjAddr: 0xBCC0, symBinAddr: 0x10000DB50, symSize: 0x68 }
  - { offsetInCU: 0x23E75, offset: 0x23E75, size: 0x8, addend: 0x0, symName: __ZNSt3__116reverse_iteratorIPfEC1B7v160006ES1_, symObjAddr: 0xBD98, symBinAddr: 0x10000DC28, symSize: 0x34 }
  - { offsetInCU: 0x23EAD, offset: 0x23EAD, size: 0x8, addend: 0x0, symName: __ZNSt3__116reverse_iteratorIPfEppB7v160006Ev, symObjAddr: 0xBE38, symBinAddr: 0x10000DCC8, symSize: 0x20 }
  - { offsetInCU: 0x23ED3, offset: 0x23ED3, size: 0x8, addend: 0x0, symName: __ZNKSt3__116reverse_iteratorIPfE4baseB7v160006Ev, symObjAddr: 0xBE58, symBinAddr: 0x10000DCE8, symSize: 0x18 }
  - { offsetInCU: 0x23EFE, offset: 0x23EFE, size: 0x8, addend: 0x0, symName: __ZNSt3__119__to_address_helperINS_16reverse_iteratorIPfEEvE6__callB7v160006ERKS3_, symObjAddr: 0xBE70, symBinAddr: 0x10000DD00, symSize: 0x38 }
  - { offsetInCU: 0x23F21, offset: 0x23F21, size: 0x8, addend: 0x0, symName: __ZNKSt3__116reverse_iteratorIPfEptB7v160006Ev, symObjAddr: 0xBEA8, symBinAddr: 0x10000DD38, symSize: 0x24 }
  - { offsetInCU: 0x23F47, offset: 0x23F47, size: 0x8, addend: 0x0, symName: __ZNKSt3__116reverse_iteratorIPfEdeB7v160006Ev, symObjAddr: 0xBECC, symBinAddr: 0x10000DD5C, symSize: 0x28 }
  - { offsetInCU: 0x23F7B, offset: 0x23F7B, size: 0x8, addend: 0x0, symName: __ZNSt3__116reverse_iteratorIPfEC2B7v160006ES1_, symObjAddr: 0xBEF4, symBinAddr: 0x10000DD84, symSize: 0x28 }
  - { offsetInCU: 0x23FB3, offset: 0x23FB3, size: 0x8, addend: 0x0, symName: __ZNSt3__16vectorINS0_IfNS_9allocatorIfEEEENS1_IS3_EEE21_ConstructTransactionD2B7v160006Ev, symObjAddr: 0xBF1C, symBinAddr: 0x10000DDAC, symSize: 0x20 }
  - { offsetInCU: 0x23FDD, offset: 0x23FDD, size: 0x8, addend: 0x0, symName: __ZNSt3__128__exception_guard_exceptionsINS_6vectorINS1_IfNS_9allocatorIfEEEENS2_IS4_EEE16__destroy_vectorEED2B7v160006Ev, symObjAddr: 0xBF3C, symBinAddr: 0x10000DDCC, symSize: 0x50 }
  - { offsetInCU: 0x24007, offset: 0x24007, size: 0x8, addend: 0x0, symName: __ZNKSt3__16vectorINS_4pairINS0_ImNS_9allocatorImEEEES4_EENS2_IS5_EEE11__make_iterB7v160006EPKS5_, symObjAddr: 0xBF8C, symBinAddr: 0x10000DE1C, symSize: 0x34 }
  - { offsetInCU: 0x2403C, offset: 0x2403C, size: 0x8, addend: 0x0, symName: __ZNSt3__111__wrap_iterIPKNS_4pairINS_6vectorImNS_9allocatorImEEEES5_EEEC1B7v160006EPKvS8_, symObjAddr: 0xBFC0, symBinAddr: 0x10000DE50, symSize: 0x3C }
  - { offsetInCU: 0x24082, offset: 0x24082, size: 0x8, addend: 0x0, symName: __ZNSt3__111__wrap_iterIPKNS_4pairINS_6vectorImNS_9allocatorImEEEES5_EEEC2B7v160006EPKvS8_, symObjAddr: 0xBFFC, symBinAddr: 0x10000DE8C, symSize: 0x24 }
  - { offsetInCU: 0x240D7, offset: 0x240D7, size: 0x8, addend: 0x0, symName: '__ZZNK8QPEngine14_createCMatrixERKNSt3__16vectorINS0_4pairINS1_ImNS0_9allocatorImEEEES5_EENS3_IS6_EEEEENK3$_1clIKS6_EEDaRT_', symObjAddr: 0xC054, symBinAddr: 0x10000DEE4, symSize: 0x15C }
  - { offsetInCU: 0x24162, offset: 0x24162, size: 0x8, addend: 0x0, symName: __ZNKSt3__111__wrap_iterIPKNS_4pairINS_6vectorImNS_9allocatorImEEEES5_EEEdeB7v160006Ev, symObjAddr: 0xC1B0, symBinAddr: 0x10000E040, symSize: 0x18 }
  - { offsetInCU: 0x24188, offset: 0x24188, size: 0x8, addend: 0x0, symName: __ZNSt3__111__wrap_iterIPKNS_4pairINS_6vectorImNS_9allocatorImEEEES5_EEEppB7v160006Ev, symObjAddr: 0xC1C8, symBinAddr: 0x10000E058, symSize: 0x20 }
  - { offsetInCU: 0x241AE, offset: 0x241AE, size: 0x8, addend: 0x0, symName: __ZNKSt3__111__wrap_iterIPKNS_4pairINS_6vectorImNS_9allocatorImEEEES5_EEE4baseB7v160006Ev, symObjAddr: 0xC230, symBinAddr: 0x10000E0C0, symSize: 0x18 }
  - { offsetInCU: 0x241D4, offset: 0x241D4, size: 0x8, addend: 0x0, symName: __ZNKSt3__16vectorImNS_9allocatorImEEEixB7v160006Em, symObjAddr: 0xC248, symBinAddr: 0x10000E0D8, symSize: 0x24 }
  - { offsetInCU: 0x2421A, offset: 0x2421A, size: 0x8, addend: 0x0, symName: '__ZZNK8QPEngine14_createAMatrixERKNSt3__16vectorINS1_IfNS0_9allocatorIfEEEENS2_IS4_EEEERKNS1_INS0_4pairINS1_ImNS2_ImEEEESB_EENS2_ISC_EEEEENK3$_2clISC_EEDaRKT_', symObjAddr: 0xC26C, symBinAddr: 0x10000E0FC, symSize: 0x8C }
  - { offsetInCU: 0x24299, offset: 0x24299, size: 0x8, addend: 0x0, symName: '__ZZZNK8QPEngine14_createAMatrixERKNSt3__16vectorINS1_IfNS0_9allocatorIfEEEENS2_IS4_EEEERKNS1_INS0_4pairINS1_ImNS2_ImEEEESB_EENS2_ISC_EEEEENK3$_2clISC_EEDaRKT_ENKUlSK_E_clImEESJ_SK_', symObjAddr: 0xC364, symBinAddr: 0x10000E1F4, symSize: 0x48 }
  - { offsetInCU: 0x242DB, offset: 0x242DB, size: 0x8, addend: 0x0, symName: __ZNKSt3__16vectorIfNS_9allocatorIfEEE11__make_iterB7v160006EPKf, symObjAddr: 0xC3AC, symBinAddr: 0x10000E23C, symSize: 0x34 }
  - { offsetInCU: 0x24310, offset: 0x24310, size: 0x8, addend: 0x0, symName: __ZNSt3__111__wrap_iterIPKfEC1B7v160006EPKvS2_, symObjAddr: 0xC3E0, symBinAddr: 0x10000E270, symSize: 0x3C }
  - { offsetInCU: 0x24356, offset: 0x24356, size: 0x8, addend: 0x0, symName: __ZNSt3__111__wrap_iterIPKfEC2B7v160006EPKvS2_, symObjAddr: 0xC41C, symBinAddr: 0x10000E2AC, symSize: 0x24 }
  - { offsetInCU: 0x243A6, offset: 0x243A6, size: 0x8, addend: 0x0, symName: '__ZZNK8QPEngine14_createAMatrixERKNSt3__16vectorINS1_IfNS0_9allocatorIfEEEENS2_IS4_EEEERKNS1_INS0_4pairINS1_ImNS2_ImEEEESB_EENS2_ISC_EEEEENK3$_3clIfEEDaT_', symObjAddr: 0xC440, symBinAddr: 0x10000E2D0, symSize: 0x38 }
  - { offsetInCU: 0x243E8, offset: 0x243E8, size: 0x8, addend: 0x0, symName: __ZNSt3__16vectorINS_4pairIffEENS_9allocatorIS2_EEEC2EmRKS2_, symObjAddr: 0xC478, symBinAddr: 0x10000E308, symSize: 0xE4 }
  - { offsetInCU: 0x24447, offset: 0x24447, size: 0x8, addend: 0x0, symName: __ZNSt3__16vectorINS_4pairIffEENS_9allocatorIS2_EEE11__vallocateB7v160006Em, symObjAddr: 0xC59C, symBinAddr: 0x10000E42C, symSize: 0xAC }
  - { offsetInCU: 0x2448B, offset: 0x2448B, size: 0x8, addend: 0x0, symName: __ZNSt3__16vectorINS_4pairIffEENS_9allocatorIS2_EEE18__construct_at_endEmRKS2_, symObjAddr: 0xC648, symBinAddr: 0x10000E4D8, symSize: 0xD0 }
  - { offsetInCU: 0x2450C, offset: 0x2450C, size: 0x8, addend: 0x0, symName: __ZNSt3__128__exception_guard_exceptionsINS_6vectorINS_4pairIffEENS_9allocatorIS3_EEE16__destroy_vectorEE10__completeB7v160006Ev, symObjAddr: 0xC718, symBinAddr: 0x10000E5A8, symSize: 0x1C }
  - { offsetInCU: 0x24532, offset: 0x24532, size: 0x8, addend: 0x0, symName: __ZNSt3__128__exception_guard_exceptionsINS_6vectorINS_4pairIffEENS_9allocatorIS3_EEE16__destroy_vectorEED1B7v160006Ev, symObjAddr: 0xC734, symBinAddr: 0x10000E5C4, symSize: 0x2C }
  - { offsetInCU: 0x2455C, offset: 0x2455C, size: 0x8, addend: 0x0, symName: __ZNSt3__128__exception_guard_exceptionsINS_6vectorINS_4pairIffEENS_9allocatorIS3_EEE16__destroy_vectorEEC1B7v160006ES7_, symObjAddr: 0xC760, symBinAddr: 0x10000E5F0, symSize: 0x34 }
  - { offsetInCU: 0x24594, offset: 0x24594, size: 0x8, addend: 0x0, symName: __ZNSt3__128__exception_guard_exceptionsINS_6vectorINS_4pairIffEENS_9allocatorIS3_EEE16__destroy_vectorEEC2B7v160006ES7_, symObjAddr: 0xC794, symBinAddr: 0x10000E624, symSize: 0x24 }
  - { offsetInCU: 0x245E5, offset: 0x245E5, size: 0x8, addend: 0x0, symName: __ZNSt3__16vectorINS_4pairIffEENS_9allocatorIS2_EEE21_ConstructTransactionC1B7v160006ERS5_m, symObjAddr: 0xC7B8, symBinAddr: 0x10000E648, symSize: 0x3C }
  - { offsetInCU: 0x2462D, offset: 0x2462D, size: 0x8, addend: 0x0, symName: __ZNSt3__116allocator_traitsINS_9allocatorINS_4pairIffEEEEE9constructB7v160006IS3_JRKS3_EvEEvRS4_PT_DpOT0_, symObjAddr: 0xC7F4, symBinAddr: 0x10000E684, symSize: 0x34 }
  - { offsetInCU: 0x24684, offset: 0x24684, size: 0x8, addend: 0x0, symName: __ZNSt3__16vectorINS_4pairIffEENS_9allocatorIS2_EEE21_ConstructTransactionD1B7v160006Ev, symObjAddr: 0xC828, symBinAddr: 0x10000E6B8, symSize: 0x2C }
  - { offsetInCU: 0x246AE, offset: 0x246AE, size: 0x8, addend: 0x0, symName: __ZNSt3__16vectorINS_4pairIffEENS_9allocatorIS2_EEE21_ConstructTransactionC2B7v160006ERS5_m, symObjAddr: 0xC854, symBinAddr: 0x10000E6E4, symSize: 0x44 }
  - { offsetInCU: 0x246F6, offset: 0x246F6, size: 0x8, addend: 0x0, symName: __ZNSt3__19allocatorINS_4pairIffEEE9constructB7v160006IS2_JRKS2_EEEvPT_DpOT0_, symObjAddr: 0xC898, symBinAddr: 0x10000E728, symSize: 0x28 }
  - { offsetInCU: 0x2474C, offset: 0x2474C, size: 0x8, addend: 0x0, symName: __ZNSt3__16vectorINS_4pairIffEENS_9allocatorIS2_EEE21_ConstructTransactionD2B7v160006Ev, symObjAddr: 0xC8C0, symBinAddr: 0x10000E750, symSize: 0x20 }
  - { offsetInCU: 0x24776, offset: 0x24776, size: 0x8, addend: 0x0, symName: __ZNSt3__128__exception_guard_exceptionsINS_6vectorINS_4pairIffEENS_9allocatorIS3_EEE16__destroy_vectorEED2B7v160006Ev, symObjAddr: 0xC8E0, symBinAddr: 0x10000E770, symSize: 0x50 }
  - { offsetInCU: 0x247AF, offset: 0x247AF, size: 0x8, addend: 0x0, symName: '__ZZNK8QPEngine14_createBVectorERKNSt3__16vectorINS0_4pairINS1_ImNS0_9allocatorImEEEES5_EENS3_IS6_EEEERKNS1_INS2_IffEENS3_ISB_EEEEENK3$_4clIS6_EEDaRKT_', symObjAddr: 0xC930, symBinAddr: 0x10000E7C0, symSize: 0x11C }
  - { offsetInCU: 0x2480E, offset: 0x2480E, size: 0x8, addend: 0x0, symName: __ZNKSt3__16vectorINS_4pairIffEENS_9allocatorIS2_EEEixB7v160006Em, symObjAddr: 0xCA4C, symBinAddr: 0x10000E8DC, symSize: 0x24 }
...
